
Final.elf:     file format elf32-littlenios2
Final.elf
architecture: nios2, flags 0x00000112:
EXEC_P, HAS_SYMS, D_PAGED
start address 0x00004168

Program Header:
    LOAD off    0x00001000 vaddr 0x00004000 paddr 0x00004000 align 2**12
         filesz 0x00000020 memsz 0x00000020 flags r-x
    LOAD off    0x00001020 vaddr 0x00004020 paddr 0x00004020 align 2**12
         filesz 0x000026c4 memsz 0x000026c4 flags r-x
    LOAD off    0x000036e4 vaddr 0x000066e4 paddr 0x000069dc align 2**12
         filesz 0x000002f8 memsz 0x000002f8 flags rw-
    LOAD off    0x00003cd4 vaddr 0x00006cd4 paddr 0x00006cd4 align 2**12
         filesz 0x00000000 memsz 0x0000011c flags rw-

Sections:
Idx Name          Size      VMA       LMA       File off  Algn
  0 .entry        00000020  00004000  00004000  00001000  2**5
                  CONTENTS, ALLOC, LOAD, READONLY, CODE
  1 .exceptions   00000148  00004020  00004020  00001020  2**2
                  CONTENTS, ALLOC, LOAD, READONLY, CODE
  2 .text         00002444  00004168  00004168  00001168  2**2
                  CONTENTS, ALLOC, LOAD, READONLY, CODE
  3 .rodata       00000138  000065ac  000065ac  000035ac  2**2
                  CONTENTS, ALLOC, LOAD, READONLY, DATA
  4 .rwdata       000002f8  000066e4  000069dc  000036e4  2**2
                  CONTENTS, ALLOC, LOAD, DATA, SMALL_DATA
  5 .bss          0000011c  00006cd4  00006cd4  00003cd4  2**2
                  ALLOC, SMALL_DATA
  6 .comment      00000026  00000000  00000000  000039dc  2**0
                  CONTENTS, READONLY
  7 .debug_aranges 000002f0  00000000  00000000  00003a08  2**3
                  CONTENTS, READONLY, DEBUGGING
  8 .debug_pubnames 00000394  00000000  00000000  00003cf8  2**0
                  CONTENTS, READONLY, DEBUGGING
  9 .debug_info   00004c11  00000000  00000000  0000408c  2**0
                  CONTENTS, READONLY, DEBUGGING
 10 .debug_abbrev 000019c3  00000000  00000000  00008c9d  2**0
                  CONTENTS, READONLY, DEBUGGING
 11 .debug_line   00003409  00000000  00000000  0000a660  2**0
                  CONTENTS, READONLY, DEBUGGING
 12 .debug_frame  000003ec  00000000  00000000  0000da6c  2**2
                  CONTENTS, READONLY, DEBUGGING
 13 .debug_str    00000d6c  00000000  00000000  0000de58  2**0
                  CONTENTS, READONLY, DEBUGGING
 14 .debug_loc    0000169a  00000000  00000000  0000ebc4  2**0
                  CONTENTS, READONLY, DEBUGGING
 15 .debug_alt_sim_info 00000010  00000000  00000000  00010260  2**2
                  CONTENTS, READONLY, DEBUGGING
 16 .debug_ranges 00000368  00000000  00000000  00010270  2**3
                  CONTENTS, READONLY, DEBUGGING
 17 .thread_model 00000003  00000000  00000000  000120b5  2**0
                  CONTENTS, READONLY
 18 .cpu          00000007  00000000  00000000  000120b8  2**0
                  CONTENTS, READONLY
 19 .qsys         00000001  00000000  00000000  000120bf  2**0
                  CONTENTS, READONLY
 20 .simulation_enabled 00000001  00000000  00000000  000120c0  2**0
                  CONTENTS, READONLY
 21 .sysid_hash   00000004  00000000  00000000  000120c1  2**0
                  CONTENTS, READONLY
 22 .sysid_base   00000004  00000000  00000000  000120c5  2**0
                  CONTENTS, READONLY
 23 .sysid_time   00000004  00000000  00000000  000120c9  2**0
                  CONTENTS, READONLY
 24 .stderr_dev   0000000b  00000000  00000000  000120cd  2**0
                  CONTENTS, READONLY
 25 .stdin_dev    0000000b  00000000  00000000  000120d8  2**0
                  CONTENTS, READONLY
 26 .stdout_dev   0000000b  00000000  00000000  000120e3  2**0
                  CONTENTS, READONLY
 27 .sopc_system_name 00000003  00000000  00000000  000120ee  2**0
                  CONTENTS, READONLY
 28 .quartus_project_dir 00000043  00000000  00000000  000120f1  2**0
                  CONTENTS, READONLY
 29 .sopcinfo     0003c69e  00000000  00000000  00012134  2**0
                  CONTENTS, READONLY
SYMBOL TABLE:
00004000 l    d  .entry	00000000 .entry
00004020 l    d  .exceptions	00000000 .exceptions
00004168 l    d  .text	00000000 .text
000065ac l    d  .rodata	00000000 .rodata
000066e4 l    d  .rwdata	00000000 .rwdata
00006cd4 l    d  .bss	00000000 .bss
00000000 l    d  .comment	00000000 .comment
00000000 l    d  .debug_aranges	00000000 .debug_aranges
00000000 l    d  .debug_pubnames	00000000 .debug_pubnames
00000000 l    d  .debug_info	00000000 .debug_info
00000000 l    d  .debug_abbrev	00000000 .debug_abbrev
00000000 l    d  .debug_line	00000000 .debug_line
00000000 l    d  .debug_frame	00000000 .debug_frame
00000000 l    d  .debug_str	00000000 .debug_str
00000000 l    d  .debug_loc	00000000 .debug_loc
00000000 l    d  .debug_alt_sim_info	00000000 .debug_alt_sim_info
00000000 l    d  .debug_ranges	00000000 .debug_ranges
000041a0 l       .text	00000000 alt_after_alt_main
00000000 l    df *ABS*	00000000 alt_irq_handler.c
00000000 l    df *ABS*	00000000 hello_world.c
00000000 l    df *ABS*	00000000 fp-bit.c
000042dc l     F .text	000001e4 _fpadd_parts
00000000 l    df *ABS*	00000000 fp-bit.c
00000000 l    df *ABS*	00000000 fp-bit.c
00000000 l    df *ABS*	00000000 fp-bit.c
00000000 l    df *ABS*	00000000 fp-bit.c
00000000 l    df *ABS*	00000000 libgcc2.c
00000000 l    df *ABS*	00000000 libgcc2.c
00000000 l    df *ABS*	00000000 fp-bit.c
00000000 l    df *ABS*	00000000 fp-bit.c
00000000 l    df *ABS*	00000000 lib2-mul.c
00000000 l    df *ABS*	00000000 libgcc2.c
00000000 l    df *ABS*	00000000 printf.c
00000000 l    df *ABS*	00000000 vfprintf.c
00004d64 l     F .text	00000080 print_repeat
00000000 l    df *ABS*	00000000 fvwrite_small_dev.c
00000000 l    df *ABS*	00000000 impure.c
000066e4 l     O .rwdata	000000e0 impure_data
00000000 l    df *ABS*	00000000 strlen.c
00000000 l    df *ABS*	00000000 writer.c
00000000 l    df *ABS*	00000000 int_errno.c
00000000 l    df *ABS*	00000000 lib2-divmod.c
000055f8 l     F .text	0000007c udivmodsi4
00000000 l    df *ABS*	00000000 alt_load.c
00000000 l    df *ABS*	00000000 alt_main.c
00000000 l    df *ABS*	00000000 alt_write.c
00000000 l    df *ABS*	00000000 alt_sys_init.c
000067c4 l     O .rwdata	0000002c jtag_uart_0
00000000 l    df *ABS*	00000000 altera_avalon_jtag_uart_fd.c
00000000 l    df *ABS*	00000000 altera_avalon_jtag_uart_read.c
00000000 l    df *ABS*	00000000 altera_avalon_jtag_uart_write.c
00000000 l    df *ABS*	00000000 altera_avalon_timer_sc.c
00005b0c l     F .text	0000003c alt_avalon_timer_sc_irq
00000000 l    df *ABS*	00000000 alt_close.c
00000000 l    df *ABS*	00000000 alt_dcache_flush_all.c
00000000 l    df *ABS*	00000000 alt_dev.c
00005c2c l     F .text	00000008 alt_dev_null_write
00000000 l    df *ABS*	00000000 alt_dev_llist_insert.c
00000000 l    df *ABS*	00000000 alt_errno.c
00000000 l    df *ABS*	00000000 alt_icache_flush_all.c
00000000 l    df *ABS*	00000000 alt_iic.c
00000000 l    df *ABS*	00000000 alt_iic_isr_register.c
00000000 l    df *ABS*	00000000 alt_io_redirect.c
00005dc8 l     F .text	00000078 alt_open_fd
00000000 l    df *ABS*	00000000 alt_irq_vars.c
00000000 l    df *ABS*	00000000 alt_open.c
00000000 l    df *ABS*	00000000 alt_release_fd.c
00000000 l    df *ABS*	00000000 alt_tick.c
00000000 l    df *ABS*	00000000 altera_nios2_qsys_irq.c
00000000 l    df *ABS*	00000000 alt_find_dev.c
00000000 l    df *ABS*	00000000 alt_find_file.c
00000000 l    df *ABS*	00000000 alt_get_fd.c
00000000 l    df *ABS*	00000000 exit.c
00000000 l    df *ABS*	00000000 memcmp.c
00000000 l    df *ABS*	00000000 __call_atexit.c
000063d4 l     F .text	00000004 register_fini
00000000 l    df *ABS*	00000000 alt_exit.c
00005808 g     F .text	00000050 alt_main
00006cf0 g     O .bss	00000100 alt_irq
000069dc g       *ABS*	00000000 __flash_rwdata_start
00004ccc g     F .text	00000054 printf
000069a0 g     O .rwdata	00000004 b
00004774 g     F .text	00000094 __fixsfsi
00000000  w      *UND*	00000000 __errno
00004000 g     F .entry	0000000c __reset
00004020 g       *ABS*	00000000 __flash_exceptions_start
00006cd4 g     O .bss	00000004 errno
00006cdc g     O .bss	00000004 alt_argv
0000e998 g       *ABS*	00000000 _gp
000044c0 g     F .text	00000070 __subsf3
00006818 g     O .rwdata	00000180 alt_fd_list
000061ac g     F .text	00000070 alt_find_dev
00005e40 g     F .text	00000098 alt_io_redirect
00005a14 g     F .text	0000006c altera_avalon_jtag_uart_read
00004d20 g     F .text	00000044 _printf_r
00005734 g     F .text	00000008 __udivsi3
000069c8 g     O .rwdata	00000004 alt_max_fd
000069ac g     O .rwdata	00000004 lsfr
000069b4 g     O .rwdata	00000004 _global_impure_ptr
00006df0 g       *ABS*	00000000 __bss_end
00005d60 g     F .text	00000068 alt_iic_isr_register
000060f8 g     F .text	000000ac alt_tick
00005ca8 g     F .text	00000018 alt_ic_irq_enabled
000060c4 g     F .text	00000034 alt_alarm_stop
00006ce4 g     O .bss	00000004 alt_irq_active
000040ec g     F .exceptions	0000007c alt_irq_handler
000067f0 g     O .rwdata	00000028 alt_dev_null
00004bcc g     F .text	000000c8 __unpack_f
00005c28 g     F .text	00000004 alt_dcache_flush_all
000069dc g       *ABS*	00000000 __ram_rwdata_end
000069c0 g     O .rwdata	00000008 alt_dev_list
00005858 g     F .text	00000110 write
000066e4 g       *ABS*	00000000 __ram_rodata_end
0000573c g     F .text	00000008 __umodsi3
00006df0 g       *ABS*	00000000 end
00004a6c g     F .text	00000160 __pack_f
00008000 g       *ABS*	00000000 __alt_stack_pointer
00005abc g     F .text	00000050 alt_avalon_timer_sc_init
000049ec g     F .text	00000080 __clzsi2
00005a80 g     F .text	0000003c altera_avalon_jtag_uart_write
00004de4 g     F .text	0000069c ___vfprintf_internal_r
000063d8 g     F .text	000001bc __call_exitprocs
00004168 g     F .text	0000003c _start
00006ce8 g     O .bss	00000004 _alt_tick_rate
00006cec g     O .bss	00000004 _alt_nticks
00005968 g     F .text	0000003c alt_sys_init
0000699c g     O .rwdata	00000004 w_kj
00004c94 g     F .text	00000038 __mulsi3
000066e4 g       *ABS*	00000000 __ram_rwdata_start
000065ac g       *ABS*	00000000 __ram_rodata_start
000059ec g     F .text	00000028 altera_avalon_jtag_uart_read_fd
000062d8 g     F .text	000000a0 alt_get_fd
000069a4 g     O .rwdata	00000004 training
00006398 g     F .text	0000003c memcmp
00006df0 g       *ABS*	00000000 __alt_stack_base
000065b4 g     O .rodata	00000010 __thenan_sf
0000621c g     F .text	000000bc alt_find_file
00005c34 g     F .text	00000070 alt_dev_llist_insert
00006998 g     O .rwdata	00000004 w_ji
000054a4 g     F .text	000000bc __sfvwrite_small_dev
00006cd4 g       *ABS*	00000000 __bss_start
000041a4 g     F .text	00000138 main
00004000 g       *ABS*	00000000 __alt_mem_RAM
00006ce0 g     O .bss	00000004 alt_envp
000059c4 g     F .text	00000028 altera_avalon_jtag_uart_write_fd
000069cc g     O .rwdata	00000004 alt_errno
00005674 g     F .text	00000060 __divsi3
00004594 g     F .text	000001e0 __mulsf3
000065ac g       *ABS*	00000000 __flash_rodata_start
000059a4 g     F .text	00000020 alt_irq_init
0000605c g     F .text	00000068 alt_release_fd
000065c4 g     O .rodata	00000100 __clz_tab
00005580 g     F .text	00000078 _write_r
000069b0 g     O .rwdata	00000004 _impure_ptr
00006cd8 g     O .bss	00000004 alt_argc
00004020 g       .exceptions	00000000 alt_irq_entry
000069b8 g     O .rwdata	00000008 alt_fs_list
00004020 g       *ABS*	00000000 __ram_exceptions_start
00005d40 g     F .text	00000020 alt_ic_isr_register
000069dc g       *ABS*	00000000 _edata
00006df0 g       *ABS*	00000000 _end
00004168 g       *ABS*	00000000 __ram_exceptions_end
00005d00 g     F .text	00000040 alt_ic_irq_disable
000061a4 g     F .text	00000008 altera_nios2_qsys_irq_init
00006378 g     F .text	00000020 exit
00004808 g     F .text	000000c0 __floatunsisf
000056d4 g     F .text	00000060 __modsi3
00008000 g       *ABS*	00000000 __alt_data_end
00004020 g     F .exceptions	00000000 alt_exception
000069a8 g     O .rwdata	00000004 start
00006594 g     F .text	00000014 _exit
000048c8 g     F .text	00000124 __muldi3
00005560 g     F .text	00000020 strlen
00005ed8 g     F .text	00000184 open
00005ca4 g     F .text	00000004 alt_icache_flush_all
000069d0 g     O .rwdata	00000004 alt_priority_mask
00005cc0 g     F .text	00000040 alt_ic_irq_enable
00005480 g     F .text	00000024 __vfprintf_internal
000069d4 g     O .rwdata	00000008 alt_alarm_list
00005b48 g     F .text	000000e0 close
00004530 g     F .text	00000064 __addsf3
00005744 g     F .text	000000c4 alt_load
00000000  w      *UND*	00000000 free



Disassembly of section .entry:

00004000 <__reset>:
 * Jump to the _start entry point in the .text section if reset code
 * is allowed or if optimizing for RTL simulation.
 */
#if defined(ALT_ALLOW_CODE_AT_RESET) || defined(ALT_SIM_OPTIMIZE)
    /* Jump to the _start entry point in the .text section. */
    movhi r1, %hi(_start)
    4000:	00400034 	movhi	at,0
    ori r1, r1, %lo(_start)
    4004:	08505a14 	ori	at,at,16744
    jmp r1
    4008:	0800683a 	jmp	at
	...

Disassembly of section .exceptions:

00004020 <alt_exception>:
         * Process an exception.  For all exceptions we must preserve all
         * caller saved registers on the stack (See the Nios2 ABI
         * documentation for details).
         */

        addi  sp, sp, -76
    4020:	deffed04 	addi	sp,sp,-76

#endif

#endif

        stw   ra,  0(sp)
    4024:	dfc00015 	stw	ra,0(sp)
        /*
         * Leave a gap in the stack frame at 4(sp) for the muldiv handler to
         * store zero into.
         */

        stw   r1,   8(sp)
    4028:	d8400215 	stw	at,8(sp)
        stw   r2,  12(sp)
    402c:	d8800315 	stw	r2,12(sp)
        stw   r3,  16(sp)
    4030:	d8c00415 	stw	r3,16(sp)
        stw   r4,  20(sp)
    4034:	d9000515 	stw	r4,20(sp)
        stw   r5,  24(sp)
    4038:	d9400615 	stw	r5,24(sp)
        stw   r6,  28(sp)
    403c:	d9800715 	stw	r6,28(sp)
        stw   r7,  32(sp)
    4040:	d9c00815 	stw	r7,32(sp)

        rdctl r5, estatus
    4044:	000b307a 	rdctl	r5,estatus

        stw   r8,  36(sp)
    4048:	da000915 	stw	r8,36(sp)
        stw   r9,  40(sp)
    404c:	da400a15 	stw	r9,40(sp)
        stw   r10, 44(sp)
    4050:	da800b15 	stw	r10,44(sp)
        stw   r11, 48(sp)
    4054:	dac00c15 	stw	r11,48(sp)
        stw   r12, 52(sp)
    4058:	db000d15 	stw	r12,52(sp)
        stw   r13, 56(sp)
    405c:	db400e15 	stw	r13,56(sp)
        stw   r14, 60(sp)
    4060:	db800f15 	stw	r14,60(sp)
        stw   r15, 64(sp)
    4064:	dbc01015 	stw	r15,64(sp)
        /*
         * ea-4 contains the address of the instruction being executed
         * when the exception occured. For interrupt exceptions, we will
         * will be re-issue the isntruction. Store it in 72(sp)
         */
        stw   r5,  68(sp)  /* estatus */
    4068:	d9401115 	stw	r5,68(sp)
        addi  r15, ea, -4  /* instruction that caused exception */
    406c:	ebffff04 	addi	r15,ea,-4
        stw   r15,  72(sp)
    4070:	dbc01215 	stw	r15,72(sp)
#else
        /*
         * Test to see if the exception was a software exception or caused 
         * by an external interrupt, and vector accordingly.
         */
        rdctl r4, ipending
    4074:	0009313a 	rdctl	r4,ipending
        andi  r2, r5, 1
    4078:	2880004c 	andi	r2,r5,1
        beq   r2, zero, .Lnot_irq
    407c:	10000326 	beq	r2,zero,408c <alt_exception+0x6c>
        beq   r4, zero, .Lnot_irq
    4080:	20000226 	beq	r4,zero,408c <alt_exception+0x6c>
        /*
         * Now that all necessary registers have been preserved, call 
         * alt_irq_handler() to process the interrupts.
         */

        call alt_irq_handler
    4084:	00040ec0 	call	40ec <alt_irq_handler>

        .section .exceptions.irqreturn, "xa"

        br    .Lexception_exit
    4088:	00000306 	br	4098 <alt_exception+0x78>
         * upon completion, so we write ea (address of instruction *after*
         * the one where the exception occured) into 72(sp). The actual
         * instruction that caused the exception is written in r2, which these
         * handlers will utilize.
         */
        stw   ea,  72(sp)  /* Don't re-issue */
    408c:	df401215 	stw	ea,72(sp)
        ldw   r2, -4(ea)   /* Instruction that caused exception */
    4090:	e8bfff17 	ldw	r2,-4(ea)
#ifdef NIOS2_HAS_DEBUG_STUB
       /*
        *  Either tell the user now (if there is a debugger attached) or go into
        *  the debug monitor which will loop until a debugger is attached.
        */
        break
    4094:	003da03a 	break	0
        /* 
         * Restore the saved registers, so that all general purpose registers 
         * have been restored to their state at the time the interrupt occured.
         */

        ldw   r5,  68(sp)
    4098:	d9401117 	ldw	r5,68(sp)
        ldw   ea,  72(sp)  /* This becomes the PC once eret is executed */
    409c:	df401217 	ldw	ea,72(sp)
        ldw   ra,   0(sp)
    40a0:	dfc00017 	ldw	ra,0(sp)

        wrctl estatus, r5
    40a4:	2801707a 	wrctl	estatus,r5

        ldw   r1,   8(sp)
    40a8:	d8400217 	ldw	at,8(sp)
        ldw   r2,  12(sp)
    40ac:	d8800317 	ldw	r2,12(sp)
        ldw   r3,  16(sp)
    40b0:	d8c00417 	ldw	r3,16(sp)
        ldw   r4,  20(sp)
    40b4:	d9000517 	ldw	r4,20(sp)
        ldw   r5,  24(sp)
    40b8:	d9400617 	ldw	r5,24(sp)
        ldw   r6,  28(sp)
    40bc:	d9800717 	ldw	r6,28(sp)
        ldw   r7,  32(sp)
    40c0:	d9c00817 	ldw	r7,32(sp)
#ifdef ALT_STACK_CHECK
        ldw   et, %gprel(alt_exception_old_stack_limit)(gp)
#endif
#endif

        ldw   r8,  36(sp)
    40c4:	da000917 	ldw	r8,36(sp)
        ldw   r9,  40(sp)
    40c8:	da400a17 	ldw	r9,40(sp)
        ldw   r10, 44(sp)
    40cc:	da800b17 	ldw	r10,44(sp)
        ldw   r11, 48(sp)
    40d0:	dac00c17 	ldw	r11,48(sp)
        ldw   r12, 52(sp)
    40d4:	db000d17 	ldw	r12,52(sp)
        ldw   r13, 56(sp)
    40d8:	db400e17 	ldw	r13,56(sp)
        ldw   r14, 60(sp)
    40dc:	db800f17 	ldw	r14,60(sp)
        ldw   r15, 64(sp)
    40e0:	dbc01017 	ldw	r15,64(sp)
#endif

        ldw   sp,  76(sp)

#else
        addi  sp, sp, 76
    40e4:	dec01304 	addi	sp,sp,76

        /*
         * Return to the interrupted instruction.
         */

        eret
    40e8:	ef80083a 	eret

000040ec <alt_irq_handler>:
    40ec:	defffe04 	addi	sp,sp,-8
    40f0:	dfc00115 	stw	ra,4(sp)
    40f4:	dc000015 	stw	r16,0(sp)
    40f8:	000d313a 	rdctl	r6,ipending
    40fc:	04000034 	movhi	r16,0
    4100:	841b3c04 	addi	r16,r16,27888
    4104:	3080004c 	andi	r2,r6,1
    4108:	1005003a 	cmpeq	r2,r2,zero
    410c:	10000a1e 	bne	r2,zero,4138 <alt_irq_handler+0x4c>
    4110:	0009883a 	mov	r4,zero
    4114:	200490fa 	slli	r2,r4,3
    4118:	1405883a 	add	r2,r2,r16
    411c:	10c00017 	ldw	r3,0(r2)
    4120:	11000117 	ldw	r4,4(r2)
    4124:	183ee83a 	callr	r3
    4128:	0005313a 	rdctl	r2,ipending
    412c:	10000a26 	beq	r2,zero,4158 <alt_irq_handler+0x6c>
    4130:	100d883a 	mov	r6,r2
    4134:	003ff306 	br	4104 <alt_irq_handler+0x18>
    4138:	00c00044 	movi	r3,1
    413c:	0009883a 	mov	r4,zero
    4140:	180b883a 	mov	r5,r3
    4144:	18c7883a 	add	r3,r3,r3
    4148:	2149883a 	add	r4,r4,r5
    414c:	30c4703a 	and	r2,r6,r3
    4150:	103ff01e 	bne	r2,zero,4114 <alt_irq_handler+0x28>
    4154:	003ffb06 	br	4144 <alt_irq_handler+0x58>
    4158:	dfc00117 	ldw	ra,4(sp)
    415c:	dc000017 	ldw	r16,0(sp)
    4160:	dec00204 	addi	sp,sp,8
    4164:	f800283a 	ret

Disassembly of section .text:

00004168 <_start>:
#if (NIOS2_NUM_OF_SHADOW_REG_SETS == 0)    
    /*
     * Now that the caches are initialized, set up the stack pointer.
     * The value provided by the linker is assumed to be correctly aligned.
     */
    movhi sp, %hi(__alt_stack_pointer)
    4168:	06c00034 	movhi	sp,0
    ori sp, sp, %lo(__alt_stack_pointer)
    416c:	dee00014 	ori	sp,sp,32768

    /* Set up the global pointer. */
    movhi gp, %hi(_gp)
    4170:	06800034 	movhi	gp,0
    ori gp, gp, %lo(_gp)
    4174:	d6ba6614 	ori	gp,gp,59800
 */
#ifndef ALT_SIM_OPTIMIZE
    /* Log that the BSS is about to be cleared. */
    ALT_LOG_PUTS(alt_log_msg_bss)

    movhi r2, %hi(__bss_start)
    4178:	00800034 	movhi	r2,0
    ori r2, r2, %lo(__bss_start)
    417c:	109b3514 	ori	r2,r2,27860

    movhi r3, %hi(__bss_end)
    4180:	00c00034 	movhi	r3,0
    ori r3, r3, %lo(__bss_end)
    4184:	18db7c14 	ori	r3,r3,28144

    beq r2, r3, 1f
    4188:	10c00326 	beq	r2,r3,4198 <_start+0x30>

0:
    stw zero, (r2)
    418c:	10000015 	stw	zero,0(r2)
    addi r2, r2, 4
    4190:	10800104 	addi	r2,r2,4
    bltu r2, r3, 0b
    4194:	10fffd36 	bltu	r2,r3,418c <_start+0x24>
     * section aren't defined until alt_load() has been called).
     */
    mov   et, zero
#endif

    call alt_load
    4198:	00057440 	call	5744 <alt_load>

    /* Log that alt_main is about to be called. */
    ALT_LOG_PUTS(alt_log_msg_alt_main)

    /* Call the C entry point. It should never return. */
    call alt_main
    419c:	00058080 	call	5808 <alt_main>

000041a0 <alt_after_alt_main>:

    /* Wait in infinite loop in case alt_main does return. */
alt_after_alt_main:
    br alt_after_alt_main
    41a0:	003fff06 	br	41a0 <alt_after_alt_main>

000041a4 <main>:
int * lsfr=0x1000;



int main()
{
    41a4:	defffb04 	addi	sp,sp,-20
    41a8:	dfc00415 	stw	ra,16(sp)
    41ac:	df000315 	stw	fp,12(sp)
    41b0:	df000304 	addi	fp,sp,12
	int i;
	*b=1;
    41b4:	d0e00217 	ldw	r3,-32760(gp)
    41b8:	00800044 	movi	r2,1
    41bc:	18800015 	stw	r2,0(r3)
	float x= 100.123787;
    41c0:	0090b234 	movhi	r2,17096
    41c4:	108fd844 	addi	r2,r2,16225
    41c8:	e0bffe15 	stw	r2,-8(fp)
	unsigned int y = (int)x;
    41cc:	e13ffe17 	ldw	r4,-8(fp)
    41d0:	00047740 	call	4774 <__fixsfsi>
    41d4:	e0bffd15 	stw	r2,-12(fp)
	x=(x-y)*1000000;
    41d8:	e13ffd17 	ldw	r4,-12(fp)
    41dc:	00048080 	call	4808 <__floatunsisf>
    41e0:	e13ffe17 	ldw	r4,-8(fp)
    41e4:	100b883a 	mov	r5,r2
    41e8:	00044c00 	call	44c0 <__subsf3>
    41ec:	1009883a 	mov	r4,r2
    41f0:	01525d34 	movhi	r5,18804
    41f4:	29490004 	addi	r5,r5,9216
    41f8:	00045940 	call	4594 <__mulsf3>
    41fc:	e0bffe15 	stw	r2,-8(fp)
	y = (int)x;
    4200:	e13ffe17 	ldw	r4,-8(fp)
    4204:	00047740 	call	4774 <__fixsfsi>
    4208:	e0bffd15 	stw	r2,-12(fp)
 printf("%d \n", y);
    420c:	01000034 	movhi	r4,0
    4210:	21196b04 	addi	r4,r4,26028
    4214:	e17ffd17 	ldw	r5,-12(fp)
    4218:	0004ccc0 	call	4ccc <printf>


  for (i=0;i<2*10*4;i=i+4){
    421c:	e03fff15 	stw	zero,-4(fp)
    4220:	00000b06 	br	4250 <main+0xac>
  	*(w_ji+i) = 5;
    4224:	e0bfff17 	ldw	r2,-4(fp)
    4228:	1085883a 	add	r2,r2,r2
    422c:	1085883a 	add	r2,r2,r2
    4230:	1007883a 	mov	r3,r2
    4234:	d0a00017 	ldw	r2,-32768(gp)
    4238:	1887883a 	add	r3,r3,r2
    423c:	00800144 	movi	r2,5
    4240:	18800015 	stw	r2,0(r3)
	x=(x-y)*1000000;
	y = (int)x;
 printf("%d \n", y);


  for (i=0;i<2*10*4;i=i+4){
    4244:	e0bfff17 	ldw	r2,-4(fp)
    4248:	10800104 	addi	r2,r2,4
    424c:	e0bfff15 	stw	r2,-4(fp)
    4250:	e0bfff17 	ldw	r2,-4(fp)
    4254:	10801410 	cmplti	r2,r2,80
    4258:	103ff21e 	bne	r2,zero,4224 <main+0x80>
  	*(w_ji+i) = 5;
  	}
*b=1;
    425c:	d0e00217 	ldw	r3,-32760(gp)
    4260:	00800044 	movi	r2,1
    4264:	18800015 	stw	r2,0(r3)
printf("%d \n", *b);
    4268:	d0a00217 	ldw	r2,-32760(gp)
    426c:	11400017 	ldw	r5,0(r2)
    4270:	01000034 	movhi	r4,0
    4274:	21196b04 	addi	r4,r4,26028
    4278:	0004ccc0 	call	4ccc <printf>


 for (i=0;i<2*10*4;i=i+4){
    427c:	e03fff15 	stw	zero,-4(fp)
    4280:	00000d06 	br	42b8 <main+0x114>
  	printf("%d \n", *(w_ji+i));
    4284:	e0bfff17 	ldw	r2,-4(fp)
    4288:	1085883a 	add	r2,r2,r2
    428c:	1085883a 	add	r2,r2,r2
    4290:	1007883a 	mov	r3,r2
    4294:	d0a00017 	ldw	r2,-32768(gp)
    4298:	1885883a 	add	r2,r3,r2
    429c:	11400017 	ldw	r5,0(r2)
    42a0:	01000034 	movhi	r4,0
    42a4:	21196b04 	addi	r4,r4,26028
    42a8:	0004ccc0 	call	4ccc <printf>
  	}
*b=1;
printf("%d \n", *b);


 for (i=0;i<2*10*4;i=i+4){
    42ac:	e0bfff17 	ldw	r2,-4(fp)
    42b0:	10800104 	addi	r2,r2,4
    42b4:	e0bfff15 	stw	r2,-4(fp)
    42b8:	e0bfff17 	ldw	r2,-4(fp)
    42bc:	10801410 	cmplti	r2,r2,80
    42c0:	103ff01e 	bne	r2,zero,4284 <main+0xe0>
  	printf("%d \n", *(w_ji+i));
  	}

  return 0;
    42c4:	0005883a 	mov	r2,zero
}
    42c8:	e037883a 	mov	sp,fp
    42cc:	dfc00117 	ldw	ra,4(sp)
    42d0:	df000017 	ldw	fp,0(sp)
    42d4:	dec00204 	addi	sp,sp,8
    42d8:	f800283a 	ret

000042dc <_fpadd_parts>:
    42dc:	21c00017 	ldw	r7,0(r4)
    42e0:	02000044 	movi	r8,1
    42e4:	41c0332e 	bgeu	r8,r7,43b4 <_fpadd_parts+0xd8>
    42e8:	28800017 	ldw	r2,0(r5)
    42ec:	4080462e 	bgeu	r8,r2,4408 <_fpadd_parts+0x12c>
    42f0:	00c00104 	movi	r3,4
    42f4:	38c06b26 	beq	r7,r3,44a4 <_fpadd_parts+0x1c8>
    42f8:	10c04326 	beq	r2,r3,4408 <_fpadd_parts+0x12c>
    42fc:	00c00084 	movi	r3,2
    4300:	10c02e26 	beq	r2,r3,43bc <_fpadd_parts+0xe0>
    4304:	38c04026 	beq	r7,r3,4408 <_fpadd_parts+0x12c>
    4308:	22800217 	ldw	r10,8(r4)
    430c:	28c00217 	ldw	r3,8(r5)
    4310:	23000317 	ldw	r12,12(r4)
    4314:	2a400317 	ldw	r9,12(r5)
    4318:	50cfc83a 	sub	r7,r10,r3
    431c:	3817883a 	mov	r11,r7
    4320:	38004f16 	blt	r7,zero,4460 <_fpadd_parts+0x184>
    4324:	008007c4 	movi	r2,31
    4328:	11c03316 	blt	r2,r7,43f8 <_fpadd_parts+0x11c>
    432c:	02c0540e 	bge	zero,r11,4480 <_fpadd_parts+0x1a4>
    4330:	41c4983a 	sll	r2,r8,r7
    4334:	49c6d83a 	srl	r3,r9,r7
    4338:	10bfffc4 	addi	r2,r2,-1
    433c:	4884703a 	and	r2,r9,r2
    4340:	1004c03a 	cmpne	r2,r2,zero
    4344:	1892b03a 	or	r9,r3,r2
    4348:	20c00117 	ldw	r3,4(r4)
    434c:	28800117 	ldw	r2,4(r5)
    4350:	18803c26 	beq	r3,r2,4444 <_fpadd_parts+0x168>
    4354:	18002f26 	beq	r3,zero,4414 <_fpadd_parts+0x138>
    4358:	4b05c83a 	sub	r2,r9,r12
    435c:	10004216 	blt	r2,zero,4468 <_fpadd_parts+0x18c>
    4360:	32800215 	stw	r10,8(r6)
    4364:	30800315 	stw	r2,12(r6)
    4368:	30000115 	stw	zero,4(r6)
    436c:	31000317 	ldw	r4,12(r6)
    4370:	01d00034 	movhi	r7,16384
    4374:	39ffff84 	addi	r7,r7,-2
    4378:	20bfffc4 	addi	r2,r4,-1
    437c:	2007883a 	mov	r3,r4
    4380:	38800836 	bltu	r7,r2,43a4 <_fpadd_parts+0xc8>
    4384:	31400217 	ldw	r5,8(r6)
    4388:	18c9883a 	add	r4,r3,r3
    438c:	20bfffc4 	addi	r2,r4,-1
    4390:	297fffc4 	addi	r5,r5,-1
    4394:	2007883a 	mov	r3,r4
    4398:	38bffb2e 	bgeu	r7,r2,4388 <_fpadd_parts+0xac>
    439c:	31400215 	stw	r5,8(r6)
    43a0:	31000315 	stw	r4,12(r6)
    43a4:	008000c4 	movi	r2,3
    43a8:	30800015 	stw	r2,0(r6)
    43ac:	20001b16 	blt	r4,zero,441c <_fpadd_parts+0x140>
    43b0:	3009883a 	mov	r4,r6
    43b4:	2005883a 	mov	r2,r4
    43b8:	f800283a 	ret
    43bc:	38fffd1e 	bne	r7,r3,43b4 <_fpadd_parts+0xd8>
    43c0:	31c00015 	stw	r7,0(r6)
    43c4:	20800117 	ldw	r2,4(r4)
    43c8:	30800115 	stw	r2,4(r6)
    43cc:	20c00217 	ldw	r3,8(r4)
    43d0:	30c00215 	stw	r3,8(r6)
    43d4:	20800317 	ldw	r2,12(r4)
    43d8:	30800315 	stw	r2,12(r6)
    43dc:	20c00117 	ldw	r3,4(r4)
    43e0:	28800117 	ldw	r2,4(r5)
    43e4:	3009883a 	mov	r4,r6
    43e8:	1886703a 	and	r3,r3,r2
    43ec:	2005883a 	mov	r2,r4
    43f0:	30c00115 	stw	r3,4(r6)
    43f4:	f800283a 	ret
    43f8:	1a801716 	blt	r3,r10,4458 <_fpadd_parts+0x17c>
    43fc:	1815883a 	mov	r10,r3
    4400:	0019883a 	mov	r12,zero
    4404:	003fd006 	br	4348 <_fpadd_parts+0x6c>
    4408:	2809883a 	mov	r4,r5
    440c:	2005883a 	mov	r2,r4
    4410:	f800283a 	ret
    4414:	6245c83a 	sub	r2,r12,r9
    4418:	003fd006 	br	435c <_fpadd_parts+0x80>
    441c:	30800217 	ldw	r2,8(r6)
    4420:	2006d07a 	srli	r3,r4,1
    4424:	2100004c 	andi	r4,r4,1
    4428:	10800044 	addi	r2,r2,1
    442c:	1906b03a 	or	r3,r3,r4
    4430:	3009883a 	mov	r4,r6
    4434:	30800215 	stw	r2,8(r6)
    4438:	2005883a 	mov	r2,r4
    443c:	30c00315 	stw	r3,12(r6)
    4440:	f800283a 	ret
    4444:	4b09883a 	add	r4,r9,r12
    4448:	30c00115 	stw	r3,4(r6)
    444c:	32800215 	stw	r10,8(r6)
    4450:	31000315 	stw	r4,12(r6)
    4454:	003fd306 	br	43a4 <_fpadd_parts+0xc8>
    4458:	0013883a 	mov	r9,zero
    445c:	003fba06 	br	4348 <_fpadd_parts+0x6c>
    4460:	01cfc83a 	sub	r7,zero,r7
    4464:	003faf06 	br	4324 <_fpadd_parts+0x48>
    4468:	0089c83a 	sub	r4,zero,r2
    446c:	00800044 	movi	r2,1
    4470:	30800115 	stw	r2,4(r6)
    4474:	32800215 	stw	r10,8(r6)
    4478:	31000315 	stw	r4,12(r6)
    447c:	003fbb06 	br	436c <_fpadd_parts+0x90>
    4480:	583fb126 	beq	r11,zero,4348 <_fpadd_parts+0x6c>
    4484:	41c4983a 	sll	r2,r8,r7
    4488:	61c6d83a 	srl	r3,r12,r7
    448c:	51d5883a 	add	r10,r10,r7
    4490:	10bfffc4 	addi	r2,r2,-1
    4494:	6084703a 	and	r2,r12,r2
    4498:	1004c03a 	cmpne	r2,r2,zero
    449c:	1898b03a 	or	r12,r3,r2
    44a0:	003fa906 	br	4348 <_fpadd_parts+0x6c>
    44a4:	11ffc31e 	bne	r2,r7,43b4 <_fpadd_parts+0xd8>
    44a8:	28c00117 	ldw	r3,4(r5)
    44ac:	20800117 	ldw	r2,4(r4)
    44b0:	10ffc026 	beq	r2,r3,43b4 <_fpadd_parts+0xd8>
    44b4:	01000034 	movhi	r4,0
    44b8:	21196d04 	addi	r4,r4,26036
    44bc:	003fbd06 	br	43b4 <_fpadd_parts+0xd8>

000044c0 <__subsf3>:
    44c0:	deffef04 	addi	sp,sp,-68
    44c4:	dcc00f15 	stw	r19,60(sp)
    44c8:	dcc00204 	addi	r19,sp,8
    44cc:	dc400e15 	stw	r17,56(sp)
    44d0:	d9000015 	stw	r4,0(sp)
    44d4:	d9400115 	stw	r5,4(sp)
    44d8:	d809883a 	mov	r4,sp
    44dc:	980b883a 	mov	r5,r19
    44e0:	dc400604 	addi	r17,sp,24
    44e4:	dfc01015 	stw	ra,64(sp)
    44e8:	0004bcc0 	call	4bcc <__unpack_f>
    44ec:	d9000104 	addi	r4,sp,4
    44f0:	880b883a 	mov	r5,r17
    44f4:	0004bcc0 	call	4bcc <__unpack_f>
    44f8:	d8800717 	ldw	r2,28(sp)
    44fc:	9809883a 	mov	r4,r19
    4500:	880b883a 	mov	r5,r17
    4504:	d9800a04 	addi	r6,sp,40
    4508:	1080005c 	xori	r2,r2,1
    450c:	d8800715 	stw	r2,28(sp)
    4510:	00042dc0 	call	42dc <_fpadd_parts>
    4514:	1009883a 	mov	r4,r2
    4518:	0004a6c0 	call	4a6c <__pack_f>
    451c:	dfc01017 	ldw	ra,64(sp)
    4520:	dcc00f17 	ldw	r19,60(sp)
    4524:	dc400e17 	ldw	r17,56(sp)
    4528:	dec01104 	addi	sp,sp,68
    452c:	f800283a 	ret

00004530 <__addsf3>:
    4530:	deffef04 	addi	sp,sp,-68
    4534:	dcc00f15 	stw	r19,60(sp)
    4538:	dcc00204 	addi	r19,sp,8
    453c:	dc400e15 	stw	r17,56(sp)
    4540:	d9000015 	stw	r4,0(sp)
    4544:	d9400115 	stw	r5,4(sp)
    4548:	d809883a 	mov	r4,sp
    454c:	980b883a 	mov	r5,r19
    4550:	dc400604 	addi	r17,sp,24
    4554:	dfc01015 	stw	ra,64(sp)
    4558:	0004bcc0 	call	4bcc <__unpack_f>
    455c:	d9000104 	addi	r4,sp,4
    4560:	880b883a 	mov	r5,r17
    4564:	0004bcc0 	call	4bcc <__unpack_f>
    4568:	d9800a04 	addi	r6,sp,40
    456c:	9809883a 	mov	r4,r19
    4570:	880b883a 	mov	r5,r17
    4574:	00042dc0 	call	42dc <_fpadd_parts>
    4578:	1009883a 	mov	r4,r2
    457c:	0004a6c0 	call	4a6c <__pack_f>
    4580:	dfc01017 	ldw	ra,64(sp)
    4584:	dcc00f17 	ldw	r19,60(sp)
    4588:	dc400e17 	ldw	r17,56(sp)
    458c:	dec01104 	addi	sp,sp,68
    4590:	f800283a 	ret

00004594 <__mulsf3>:
    4594:	deffef04 	addi	sp,sp,-68
    4598:	dc400f15 	stw	r17,60(sp)
    459c:	dc400204 	addi	r17,sp,8
    45a0:	dc000e15 	stw	r16,56(sp)
    45a4:	d9000015 	stw	r4,0(sp)
    45a8:	d9400115 	stw	r5,4(sp)
    45ac:	d809883a 	mov	r4,sp
    45b0:	880b883a 	mov	r5,r17
    45b4:	dc000604 	addi	r16,sp,24
    45b8:	dfc01015 	stw	ra,64(sp)
    45bc:	0004bcc0 	call	4bcc <__unpack_f>
    45c0:	d9000104 	addi	r4,sp,4
    45c4:	800b883a 	mov	r5,r16
    45c8:	0004bcc0 	call	4bcc <__unpack_f>
    45cc:	d9000217 	ldw	r4,8(sp)
    45d0:	00800044 	movi	r2,1
    45d4:	01400104 	movi	r5,4
    45d8:	1100142e 	bgeu	r2,r4,462c <__mulsf3+0x98>
    45dc:	d8c00617 	ldw	r3,24(sp)
    45e0:	10c0052e 	bgeu	r2,r3,45f8 <__mulsf3+0x64>
    45e4:	21400f26 	beq	r4,r5,4624 <__mulsf3+0x90>
    45e8:	19405d26 	beq	r3,r5,4760 <__mulsf3+0x1cc>
    45ec:	00800084 	movi	r2,2
    45f0:	20800e26 	beq	r4,r2,462c <__mulsf3+0x98>
    45f4:	1880181e 	bne	r3,r2,4658 <__mulsf3+0xc4>
    45f8:	d8c00717 	ldw	r3,28(sp)
    45fc:	d8800317 	ldw	r2,12(sp)
    4600:	8009883a 	mov	r4,r16
    4604:	10c4c03a 	cmpne	r2,r2,r3
    4608:	d8800715 	stw	r2,28(sp)
    460c:	0004a6c0 	call	4a6c <__pack_f>
    4610:	dfc01017 	ldw	ra,64(sp)
    4614:	dc400f17 	ldw	r17,60(sp)
    4618:	dc000e17 	ldw	r16,56(sp)
    461c:	dec01104 	addi	sp,sp,68
    4620:	f800283a 	ret
    4624:	00800084 	movi	r2,2
    4628:	18804f26 	beq	r3,r2,4768 <__mulsf3+0x1d4>
    462c:	d8800317 	ldw	r2,12(sp)
    4630:	d8c00717 	ldw	r3,28(sp)
    4634:	8809883a 	mov	r4,r17
    4638:	10c4c03a 	cmpne	r2,r2,r3
    463c:	d8800315 	stw	r2,12(sp)
    4640:	0004a6c0 	call	4a6c <__pack_f>
    4644:	dfc01017 	ldw	ra,64(sp)
    4648:	dc400f17 	ldw	r17,60(sp)
    464c:	dc000e17 	ldw	r16,56(sp)
    4650:	dec01104 	addi	sp,sp,68
    4654:	f800283a 	ret
    4658:	d8800517 	ldw	r2,20(sp)
    465c:	da000917 	ldw	r8,36(sp)
    4660:	0013883a 	mov	r9,zero
    4664:	0007883a 	mov	r3,zero
    4668:	480f883a 	mov	r7,r9
    466c:	180b883a 	mov	r5,r3
    4670:	400d883a 	mov	r6,r8
    4674:	1009883a 	mov	r4,r2
    4678:	00048c80 	call	48c8 <__muldi3>
    467c:	da800417 	ldw	r10,16(sp)
    4680:	d9800817 	ldw	r6,32(sp)
    4684:	da400317 	ldw	r9,12(sp)
    4688:	52800084 	addi	r10,r10,2
    468c:	3295883a 	add	r10,r6,r10
    4690:	d9800717 	ldw	r6,28(sp)
    4694:	180b883a 	mov	r5,r3
    4698:	180f883a 	mov	r7,r3
    469c:	4992c03a 	cmpne	r9,r9,r6
    46a0:	da400b15 	stw	r9,44(sp)
    46a4:	1007883a 	mov	r3,r2
    46a8:	da800c15 	stw	r10,48(sp)
    46ac:	2800070e 	bge	r5,zero,46cc <__mulsf3+0x138>
    46b0:	2880004c 	andi	r2,r5,1
    46b4:	1005003a 	cmpeq	r2,r2,zero
    46b8:	500d883a 	mov	r6,r10
    46bc:	10001e26 	beq	r2,zero,4738 <__mulsf3+0x1a4>
    46c0:	380ed07a 	srli	r7,r7,1
    46c4:	31800044 	addi	r6,r6,1
    46c8:	d9800c15 	stw	r6,48(sp)
    46cc:	01100034 	movhi	r4,16384
    46d0:	213fffc4 	addi	r4,r4,-1
    46d4:	21c00b36 	bltu	r4,r7,4704 <__mulsf3+0x170>
    46d8:	d8800c17 	ldw	r2,48(sp)
    46dc:	00000206 	br	46e8 <__mulsf3+0x154>
    46e0:	18c7883a 	add	r3,r3,r3
    46e4:	21c00636 	bltu	r4,r7,4700 <__mulsf3+0x16c>
    46e8:	10bfffc4 	addi	r2,r2,-1
    46ec:	39cf883a 	add	r7,r7,r7
    46f0:	183ffb0e 	bge	r3,zero,46e0 <__mulsf3+0x14c>
    46f4:	39c00054 	ori	r7,r7,1
    46f8:	18c7883a 	add	r3,r3,r3
    46fc:	21fffa2e 	bgeu	r4,r7,46e8 <__mulsf3+0x154>
    4700:	d8800c15 	stw	r2,48(sp)
    4704:	39001fcc 	andi	r4,r7,127
    4708:	00801004 	movi	r2,64
    470c:	20800d26 	beq	r4,r2,4744 <__mulsf3+0x1b0>
    4710:	008000c4 	movi	r2,3
    4714:	d9000a04 	addi	r4,sp,40
    4718:	d9c00d15 	stw	r7,52(sp)
    471c:	d8800a15 	stw	r2,40(sp)
    4720:	0004a6c0 	call	4a6c <__pack_f>
    4724:	dfc01017 	ldw	ra,64(sp)
    4728:	dc400f17 	ldw	r17,60(sp)
    472c:	dc000e17 	ldw	r16,56(sp)
    4730:	dec01104 	addi	sp,sp,68
    4734:	f800283a 	ret
    4738:	1804d07a 	srli	r2,r3,1
    473c:	10e00034 	orhi	r3,r2,32768
    4740:	003fdf06 	br	46c0 <__mulsf3+0x12c>
    4744:	3880200c 	andi	r2,r7,128
    4748:	103ff11e 	bne	r2,zero,4710 <__mulsf3+0x17c>
    474c:	183ff026 	beq	r3,zero,4710 <__mulsf3+0x17c>
    4750:	3907883a 	add	r3,r7,r4
    4754:	00bfe004 	movi	r2,-128
    4758:	188e703a 	and	r7,r3,r2
    475c:	003fec06 	br	4710 <__mulsf3+0x17c>
    4760:	00800084 	movi	r2,2
    4764:	20bfa41e 	bne	r4,r2,45f8 <__mulsf3+0x64>
    4768:	01000034 	movhi	r4,0
    476c:	21196d04 	addi	r4,r4,26036
    4770:	003fb306 	br	4640 <__mulsf3+0xac>

00004774 <__fixsfsi>:
    4774:	defffa04 	addi	sp,sp,-24
    4778:	d9000015 	stw	r4,0(sp)
    477c:	d9400104 	addi	r5,sp,4
    4780:	d809883a 	mov	r4,sp
    4784:	dfc00515 	stw	ra,20(sp)
    4788:	0004bcc0 	call	4bcc <__unpack_f>
    478c:	d8c00117 	ldw	r3,4(sp)
    4790:	00800084 	movi	r2,2
    4794:	1880041e 	bne	r3,r2,47a8 <__fixsfsi+0x34>
    4798:	0005883a 	mov	r2,zero
    479c:	dfc00517 	ldw	ra,20(sp)
    47a0:	dec00604 	addi	sp,sp,24
    47a4:	f800283a 	ret
    47a8:	00800044 	movi	r2,1
    47ac:	10fffa2e 	bgeu	r2,r3,4798 <__fixsfsi+0x24>
    47b0:	00800104 	movi	r2,4
    47b4:	18800426 	beq	r3,r2,47c8 <__fixsfsi+0x54>
    47b8:	d8800317 	ldw	r2,12(sp)
    47bc:	103ff616 	blt	r2,zero,4798 <__fixsfsi+0x24>
    47c0:	00c00784 	movi	r3,30
    47c4:	1880070e 	bge	r3,r2,47e4 <__fixsfsi+0x70>
    47c8:	d8800217 	ldw	r2,8(sp)
    47cc:	10000c1e 	bne	r2,zero,4800 <__fixsfsi+0x8c>
    47d0:	00a00034 	movhi	r2,32768
    47d4:	10bfffc4 	addi	r2,r2,-1
    47d8:	dfc00517 	ldw	ra,20(sp)
    47dc:	dec00604 	addi	sp,sp,24
    47e0:	f800283a 	ret
    47e4:	1885c83a 	sub	r2,r3,r2
    47e8:	d9000217 	ldw	r4,8(sp)
    47ec:	d8c00417 	ldw	r3,16(sp)
    47f0:	1884d83a 	srl	r2,r3,r2
    47f4:	203fe926 	beq	r4,zero,479c <__fixsfsi+0x28>
    47f8:	0085c83a 	sub	r2,zero,r2
    47fc:	003fe706 	br	479c <__fixsfsi+0x28>
    4800:	00a00034 	movhi	r2,32768
    4804:	003fe506 	br	479c <__fixsfsi+0x28>

00004808 <__floatunsisf>:
    4808:	defff904 	addi	sp,sp,-28
    480c:	dc400515 	stw	r17,20(sp)
    4810:	dc000415 	stw	r16,16(sp)
    4814:	dfc00615 	stw	ra,24(sp)
    4818:	04400784 	movi	r17,30
    481c:	2021883a 	mov	r16,r4
    4820:	d8000115 	stw	zero,4(sp)
    4824:	2000091e 	bne	r4,zero,484c <__floatunsisf+0x44>
    4828:	00800084 	movi	r2,2
    482c:	d8800015 	stw	r2,0(sp)
    4830:	d809883a 	mov	r4,sp
    4834:	0004a6c0 	call	4a6c <__pack_f>
    4838:	dfc00617 	ldw	ra,24(sp)
    483c:	dc400517 	ldw	r17,20(sp)
    4840:	dc000417 	ldw	r16,16(sp)
    4844:	dec00704 	addi	sp,sp,28
    4848:	f800283a 	ret
    484c:	008000c4 	movi	r2,3
    4850:	d9000315 	stw	r4,12(sp)
    4854:	d8800015 	stw	r2,0(sp)
    4858:	dc400215 	stw	r17,8(sp)
    485c:	00049ec0 	call	49ec <__clzsi2>
    4860:	117fffc4 	addi	r5,r2,-1
    4864:	0147c83a 	sub	r3,zero,r5
    4868:	00800044 	movi	r2,1
    486c:	10c4983a 	sll	r2,r2,r3
    4870:	80c6d83a 	srl	r3,r16,r3
    4874:	8949c83a 	sub	r4,r17,r5
    4878:	10bfffc4 	addi	r2,r2,-1
    487c:	8084703a 	and	r2,r16,r2
    4880:	1004c03a 	cmpne	r2,r2,zero
    4884:	1886b03a 	or	r3,r3,r2
    4888:	28000c16 	blt	r5,zero,48bc <__floatunsisf+0xb4>
    488c:	8144983a 	sll	r2,r16,r5
    4890:	8947c83a 	sub	r3,r17,r5
    4894:	283fe626 	beq	r5,zero,4830 <__floatunsisf+0x28>
    4898:	d809883a 	mov	r4,sp
    489c:	d8800315 	stw	r2,12(sp)
    48a0:	d8c00215 	stw	r3,8(sp)
    48a4:	0004a6c0 	call	4a6c <__pack_f>
    48a8:	dfc00617 	ldw	ra,24(sp)
    48ac:	dc400517 	ldw	r17,20(sp)
    48b0:	dc000417 	ldw	r16,16(sp)
    48b4:	dec00704 	addi	sp,sp,28
    48b8:	f800283a 	ret
    48bc:	d8c00315 	stw	r3,12(sp)
    48c0:	d9000215 	stw	r4,8(sp)
    48c4:	003fda06 	br	4830 <__floatunsisf+0x28>

000048c8 <__muldi3>:
    48c8:	defff204 	addi	sp,sp,-56
    48cc:	df000c15 	stw	fp,48(sp)
    48d0:	3038d43a 	srli	fp,r6,16
    48d4:	dd000815 	stw	r20,32(sp)
    48d8:	dc400515 	stw	r17,20(sp)
    48dc:	2028d43a 	srli	r20,r4,16
    48e0:	247fffcc 	andi	r17,r4,65535
    48e4:	dc000415 	stw	r16,16(sp)
    48e8:	343fffcc 	andi	r16,r6,65535
    48ec:	dcc00715 	stw	r19,28(sp)
    48f0:	d9000015 	stw	r4,0(sp)
    48f4:	2827883a 	mov	r19,r5
    48f8:	8809883a 	mov	r4,r17
    48fc:	d9400115 	stw	r5,4(sp)
    4900:	800b883a 	mov	r5,r16
    4904:	d9800215 	stw	r6,8(sp)
    4908:	dfc00d15 	stw	ra,52(sp)
    490c:	d9c00315 	stw	r7,12(sp)
    4910:	dd800a15 	stw	r22,40(sp)
    4914:	dd400915 	stw	r21,36(sp)
    4918:	302d883a 	mov	r22,r6
    491c:	ddc00b15 	stw	r23,44(sp)
    4920:	dc800615 	stw	r18,24(sp)
    4924:	0004c940 	call	4c94 <__mulsi3>
    4928:	8809883a 	mov	r4,r17
    492c:	e00b883a 	mov	r5,fp
    4930:	102b883a 	mov	r21,r2
    4934:	0004c940 	call	4c94 <__mulsi3>
    4938:	800b883a 	mov	r5,r16
    493c:	a009883a 	mov	r4,r20
    4940:	1023883a 	mov	r17,r2
    4944:	0004c940 	call	4c94 <__mulsi3>
    4948:	a009883a 	mov	r4,r20
    494c:	e00b883a 	mov	r5,fp
    4950:	1021883a 	mov	r16,r2
    4954:	0004c940 	call	4c94 <__mulsi3>
    4958:	a8ffffcc 	andi	r3,r21,65535
    495c:	a82ad43a 	srli	r21,r21,16
    4960:	8c23883a 	add	r17,r17,r16
    4964:	1011883a 	mov	r8,r2
    4968:	ac6b883a 	add	r21,r21,r17
    496c:	a804943a 	slli	r2,r21,16
    4970:	b009883a 	mov	r4,r22
    4974:	980b883a 	mov	r5,r19
    4978:	10c7883a 	add	r3,r2,r3
    497c:	a812d43a 	srli	r9,r21,16
    4980:	180d883a 	mov	r6,r3
    4984:	ac00022e 	bgeu	r21,r16,4990 <__muldi3+0xc8>
    4988:	00800074 	movhi	r2,1
    498c:	4091883a 	add	r8,r8,r2
    4990:	4267883a 	add	r19,r8,r9
    4994:	302d883a 	mov	r22,r6
    4998:	0004c940 	call	4c94 <__mulsi3>
    499c:	d9400317 	ldw	r5,12(sp)
    49a0:	d9000017 	ldw	r4,0(sp)
    49a4:	1023883a 	mov	r17,r2
    49a8:	0004c940 	call	4c94 <__mulsi3>
    49ac:	14cb883a 	add	r5,r2,r19
    49b0:	894b883a 	add	r5,r17,r5
    49b4:	b005883a 	mov	r2,r22
    49b8:	2807883a 	mov	r3,r5
    49bc:	dfc00d17 	ldw	ra,52(sp)
    49c0:	df000c17 	ldw	fp,48(sp)
    49c4:	ddc00b17 	ldw	r23,44(sp)
    49c8:	dd800a17 	ldw	r22,40(sp)
    49cc:	dd400917 	ldw	r21,36(sp)
    49d0:	dd000817 	ldw	r20,32(sp)
    49d4:	dcc00717 	ldw	r19,28(sp)
    49d8:	dc800617 	ldw	r18,24(sp)
    49dc:	dc400517 	ldw	r17,20(sp)
    49e0:	dc000417 	ldw	r16,16(sp)
    49e4:	dec00e04 	addi	sp,sp,56
    49e8:	f800283a 	ret

000049ec <__clzsi2>:
    49ec:	00bfffd4 	movui	r2,65535
    49f0:	11000e36 	bltu	r2,r4,4a2c <__clzsi2+0x40>
    49f4:	00803fc4 	movi	r2,255
    49f8:	01400204 	movi	r5,8
    49fc:	0007883a 	mov	r3,zero
    4a00:	11001036 	bltu	r2,r4,4a44 <__clzsi2+0x58>
    4a04:	000b883a 	mov	r5,zero
    4a08:	20c6d83a 	srl	r3,r4,r3
    4a0c:	00800034 	movhi	r2,0
    4a10:	10997104 	addi	r2,r2,26052
    4a14:	1887883a 	add	r3,r3,r2
    4a18:	18800003 	ldbu	r2,0(r3)
    4a1c:	00c00804 	movi	r3,32
    4a20:	2885883a 	add	r2,r5,r2
    4a24:	1885c83a 	sub	r2,r3,r2
    4a28:	f800283a 	ret
    4a2c:	01400404 	movi	r5,16
    4a30:	00804034 	movhi	r2,256
    4a34:	10bfffc4 	addi	r2,r2,-1
    4a38:	2807883a 	mov	r3,r5
    4a3c:	113ff22e 	bgeu	r2,r4,4a08 <__clzsi2+0x1c>
    4a40:	01400604 	movi	r5,24
    4a44:	2807883a 	mov	r3,r5
    4a48:	20c6d83a 	srl	r3,r4,r3
    4a4c:	00800034 	movhi	r2,0
    4a50:	10997104 	addi	r2,r2,26052
    4a54:	1887883a 	add	r3,r3,r2
    4a58:	18800003 	ldbu	r2,0(r3)
    4a5c:	00c00804 	movi	r3,32
    4a60:	2885883a 	add	r2,r5,r2
    4a64:	1885c83a 	sub	r2,r3,r2
    4a68:	f800283a 	ret

00004a6c <__pack_f>:
    4a6c:	20c00017 	ldw	r3,0(r4)
    4a70:	01c00044 	movi	r7,1
    4a74:	21800317 	ldw	r6,12(r4)
    4a78:	21400117 	ldw	r5,4(r4)
    4a7c:	38c02d2e 	bgeu	r7,r3,4b34 <__pack_f+0xc8>
    4a80:	00800104 	movi	r2,4
    4a84:	18802826 	beq	r3,r2,4b28 <__pack_f+0xbc>
    4a88:	00800084 	movi	r2,2
    4a8c:	18800126 	beq	r3,r2,4a94 <__pack_f+0x28>
    4a90:	3000101e 	bne	r6,zero,4ad4 <__pack_f+0x68>
    4a94:	000d883a 	mov	r6,zero
    4a98:	0007883a 	mov	r3,zero
    4a9c:	19003fcc 	andi	r4,r3,255
    4aa0:	200895fa 	slli	r4,r4,23
    4aa4:	00c02034 	movhi	r3,128
    4aa8:	18ffffc4 	addi	r3,r3,-1
    4aac:	30c6703a 	and	r3,r6,r3
    4ab0:	10a0002c 	andhi	r2,r2,32768
    4ab4:	10c4b03a 	or	r2,r2,r3
    4ab8:	280a97fa 	slli	r5,r5,31
    4abc:	1104b03a 	or	r2,r2,r4
    4ac0:	00e00034 	movhi	r3,32768
    4ac4:	18ffffc4 	addi	r3,r3,-1
    4ac8:	10c4703a 	and	r2,r2,r3
    4acc:	1144b03a 	or	r2,r2,r5
    4ad0:	f800283a 	ret
    4ad4:	21000217 	ldw	r4,8(r4)
    4ad8:	00bfe084 	movi	r2,-126
    4adc:	20801b16 	blt	r4,r2,4b4c <__pack_f+0xe0>
    4ae0:	00801fc4 	movi	r2,127
    4ae4:	11001016 	blt	r2,r4,4b28 <__pack_f+0xbc>
    4ae8:	308e703a 	and	r7,r6,r2
    4aec:	2087883a 	add	r3,r4,r2
    4af0:	00801004 	movi	r2,64
    4af4:	38800526 	beq	r7,r2,4b0c <__pack_f+0xa0>
    4af8:	31800fc4 	addi	r6,r6,63
    4afc:	30000716 	blt	r6,zero,4b1c <__pack_f+0xb0>
    4b00:	300490ba 	slli	r2,r6,2
    4b04:	100cd27a 	srli	r6,r2,9
    4b08:	003fe406 	br	4a9c <__pack_f+0x30>
    4b0c:	3080200c 	andi	r2,r6,128
    4b10:	103ffa26 	beq	r2,zero,4afc <__pack_f+0x90>
    4b14:	31cd883a 	add	r6,r6,r7
    4b18:	003ff806 	br	4afc <__pack_f+0x90>
    4b1c:	300cd07a 	srli	r6,r6,1
    4b20:	18c00044 	addi	r3,r3,1
    4b24:	003ff606 	br	4b00 <__pack_f+0x94>
    4b28:	000d883a 	mov	r6,zero
    4b2c:	00ffffc4 	movi	r3,-1
    4b30:	003fda06 	br	4a9c <__pack_f+0x30>
    4b34:	31800434 	orhi	r6,r6,16
    4b38:	00802034 	movhi	r2,128
    4b3c:	10bfffc4 	addi	r2,r2,-1
    4b40:	308c703a 	and	r6,r6,r2
    4b44:	00ffffc4 	movi	r3,-1
    4b48:	003fd406 	br	4a9c <__pack_f+0x30>
    4b4c:	1109c83a 	sub	r4,r2,r4
    4b50:	00800644 	movi	r2,25
    4b54:	11001216 	blt	r2,r4,4ba0 <__pack_f+0x134>
    4b58:	3904983a 	sll	r2,r7,r4
    4b5c:	3106d83a 	srl	r3,r6,r4
    4b60:	10bfffc4 	addi	r2,r2,-1
    4b64:	3084703a 	and	r2,r6,r2
    4b68:	1004c03a 	cmpne	r2,r2,zero
    4b6c:	1886b03a 	or	r3,r3,r2
    4b70:	19001fcc 	andi	r4,r3,127
    4b74:	00801004 	movi	r2,64
    4b78:	20800c26 	beq	r4,r2,4bac <__pack_f+0x140>
    4b7c:	18c00fc4 	addi	r3,r3,63
    4b80:	00900034 	movhi	r2,16384
    4b84:	10bfffc4 	addi	r2,r2,-1
    4b88:	180cd1fa 	srli	r6,r3,7
    4b8c:	10c7803a 	cmpltu	r3,r2,r3
    4b90:	00802034 	movhi	r2,128
    4b94:	10bfffc4 	addi	r2,r2,-1
    4b98:	308c703a 	and	r6,r6,r2
    4b9c:	003fbf06 	br	4a9c <__pack_f+0x30>
    4ba0:	0007883a 	mov	r3,zero
    4ba4:	000d883a 	mov	r6,zero
    4ba8:	003ff906 	br	4b90 <__pack_f+0x124>
    4bac:	1880200c 	andi	r2,r3,128
    4bb0:	10000126 	beq	r2,zero,4bb8 <__pack_f+0x14c>
    4bb4:	1907883a 	add	r3,r3,r4
    4bb8:	180cd1fa 	srli	r6,r3,7
    4bbc:	00900034 	movhi	r2,16384
    4bc0:	10bfffc4 	addi	r2,r2,-1
    4bc4:	10c7803a 	cmpltu	r3,r2,r3
    4bc8:	003ff106 	br	4b90 <__pack_f+0x124>

00004bcc <__unpack_f>:
    4bcc:	21800017 	ldw	r6,0(r4)
    4bd0:	00c02034 	movhi	r3,128
    4bd4:	18ffffc4 	addi	r3,r3,-1
    4bd8:	3004d5fa 	srli	r2,r6,23
    4bdc:	3008d7fa 	srli	r4,r6,31
    4be0:	30ce703a 	and	r7,r6,r3
    4be4:	10c03fcc 	andi	r3,r2,255
    4be8:	29000115 	stw	r4,4(r5)
    4bec:	1800131e 	bne	r3,zero,4c3c <__unpack_f+0x70>
    4bf0:	38000f26 	beq	r7,zero,4c30 <__unpack_f+0x64>
    4bf4:	380691fa 	slli	r3,r7,7
    4bf8:	01bfe084 	movi	r6,-126
    4bfc:	008000c4 	movi	r2,3
    4c00:	01100034 	movhi	r4,16384
    4c04:	213fffc4 	addi	r4,r4,-1
    4c08:	28800015 	stw	r2,0(r5)
    4c0c:	29800215 	stw	r6,8(r5)
    4c10:	20c00536 	bltu	r4,r3,4c28 <__unpack_f+0x5c>
    4c14:	3005883a 	mov	r2,r6
    4c18:	18c7883a 	add	r3,r3,r3
    4c1c:	10bfffc4 	addi	r2,r2,-1
    4c20:	20fffd2e 	bgeu	r4,r3,4c18 <__unpack_f+0x4c>
    4c24:	28800215 	stw	r2,8(r5)
    4c28:	28c00315 	stw	r3,12(r5)
    4c2c:	f800283a 	ret
    4c30:	00800084 	movi	r2,2
    4c34:	28800015 	stw	r2,0(r5)
    4c38:	f800283a 	ret
    4c3c:	00803fc4 	movi	r2,255
    4c40:	18800826 	beq	r3,r2,4c64 <__unpack_f+0x98>
    4c44:	380491fa 	slli	r2,r7,7
    4c48:	18ffe044 	addi	r3,r3,-127
    4c4c:	28c00215 	stw	r3,8(r5)
    4c50:	10900034 	orhi	r2,r2,16384
    4c54:	28800315 	stw	r2,12(r5)
    4c58:	008000c4 	movi	r2,3
    4c5c:	28800015 	stw	r2,0(r5)
    4c60:	f800283a 	ret
    4c64:	3800031e 	bne	r7,zero,4c74 <__unpack_f+0xa8>
    4c68:	00800104 	movi	r2,4
    4c6c:	28800015 	stw	r2,0(r5)
    4c70:	f800283a 	ret
    4c74:	3080042c 	andhi	r2,r6,16
    4c78:	10000426 	beq	r2,zero,4c8c <__unpack_f+0xc0>
    4c7c:	00800044 	movi	r2,1
    4c80:	28800015 	stw	r2,0(r5)
    4c84:	29c00315 	stw	r7,12(r5)
    4c88:	f800283a 	ret
    4c8c:	28000015 	stw	zero,0(r5)
    4c90:	003ffc06 	br	4c84 <__unpack_f+0xb8>

00004c94 <__mulsi3>:
    4c94:	20000a26 	beq	r4,zero,4cc0 <__mulsi3+0x2c>
    4c98:	0007883a 	mov	r3,zero
    4c9c:	2080004c 	andi	r2,r4,1
    4ca0:	1005003a 	cmpeq	r2,r2,zero
    4ca4:	2008d07a 	srli	r4,r4,1
    4ca8:	1000011e 	bne	r2,zero,4cb0 <__mulsi3+0x1c>
    4cac:	1947883a 	add	r3,r3,r5
    4cb0:	294b883a 	add	r5,r5,r5
    4cb4:	203ff91e 	bne	r4,zero,4c9c <__mulsi3+0x8>
    4cb8:	1805883a 	mov	r2,r3
    4cbc:	f800283a 	ret
    4cc0:	0007883a 	mov	r3,zero
    4cc4:	1805883a 	mov	r2,r3
    4cc8:	f800283a 	ret

00004ccc <printf>:
    4ccc:	defffb04 	addi	sp,sp,-20
    4cd0:	dfc00115 	stw	ra,4(sp)
    4cd4:	d9400215 	stw	r5,8(sp)
    4cd8:	d9800315 	stw	r6,12(sp)
    4cdc:	d9c00415 	stw	r7,16(sp)
    4ce0:	00800034 	movhi	r2,0
    4ce4:	109a6c04 	addi	r2,r2,27056
    4ce8:	11400017 	ldw	r5,0(r2)
    4cec:	d8800204 	addi	r2,sp,8
    4cf0:	d8800015 	stw	r2,0(sp)
    4cf4:	29c00217 	ldw	r7,8(r5)
    4cf8:	100d883a 	mov	r6,r2
    4cfc:	00800034 	movhi	r2,0
    4d00:	10952904 	addi	r2,r2,21668
    4d04:	200b883a 	mov	r5,r4
    4d08:	38800115 	stw	r2,4(r7)
    4d0c:	3809883a 	mov	r4,r7
    4d10:	00054800 	call	5480 <__vfprintf_internal>
    4d14:	dfc00117 	ldw	ra,4(sp)
    4d18:	dec00504 	addi	sp,sp,20
    4d1c:	f800283a 	ret

00004d20 <_printf_r>:
    4d20:	defffc04 	addi	sp,sp,-16
    4d24:	dfc00115 	stw	ra,4(sp)
    4d28:	d9800215 	stw	r6,8(sp)
    4d2c:	d9c00315 	stw	r7,12(sp)
    4d30:	22000217 	ldw	r8,8(r4)
    4d34:	d8800204 	addi	r2,sp,8
    4d38:	d8800015 	stw	r2,0(sp)
    4d3c:	100f883a 	mov	r7,r2
    4d40:	00800034 	movhi	r2,0
    4d44:	10952904 	addi	r2,r2,21668
    4d48:	280d883a 	mov	r6,r5
    4d4c:	40800115 	stw	r2,4(r8)
    4d50:	400b883a 	mov	r5,r8
    4d54:	0004de40 	call	4de4 <___vfprintf_internal_r>
    4d58:	dfc00117 	ldw	ra,4(sp)
    4d5c:	dec00404 	addi	sp,sp,16
    4d60:	f800283a 	ret

00004d64 <print_repeat>:
    4d64:	defffb04 	addi	sp,sp,-20
    4d68:	dc800315 	stw	r18,12(sp)
    4d6c:	dc400215 	stw	r17,8(sp)
    4d70:	dc000115 	stw	r16,4(sp)
    4d74:	dfc00415 	stw	ra,16(sp)
    4d78:	2025883a 	mov	r18,r4
    4d7c:	2823883a 	mov	r17,r5
    4d80:	3821883a 	mov	r16,r7
    4d84:	d9800005 	stb	r6,0(sp)
    4d88:	9009883a 	mov	r4,r18
    4d8c:	880b883a 	mov	r5,r17
    4d90:	d80d883a 	mov	r6,sp
    4d94:	01c00044 	movi	r7,1
    4d98:	04000b0e 	bge	zero,r16,4dc8 <print_repeat+0x64>
    4d9c:	88c00117 	ldw	r3,4(r17)
    4da0:	843fffc4 	addi	r16,r16,-1
    4da4:	183ee83a 	callr	r3
    4da8:	103ff726 	beq	r2,zero,4d88 <print_repeat+0x24>
    4dac:	00bfffc4 	movi	r2,-1
    4db0:	dfc00417 	ldw	ra,16(sp)
    4db4:	dc800317 	ldw	r18,12(sp)
    4db8:	dc400217 	ldw	r17,8(sp)
    4dbc:	dc000117 	ldw	r16,4(sp)
    4dc0:	dec00504 	addi	sp,sp,20
    4dc4:	f800283a 	ret
    4dc8:	0005883a 	mov	r2,zero
    4dcc:	dfc00417 	ldw	ra,16(sp)
    4dd0:	dc800317 	ldw	r18,12(sp)
    4dd4:	dc400217 	ldw	r17,8(sp)
    4dd8:	dc000117 	ldw	r16,4(sp)
    4ddc:	dec00504 	addi	sp,sp,20
    4de0:	f800283a 	ret

00004de4 <___vfprintf_internal_r>:
    4de4:	deffe304 	addi	sp,sp,-116
    4de8:	df001b15 	stw	fp,108(sp)
    4dec:	ddc01a15 	stw	r23,104(sp)
    4df0:	dd001715 	stw	r20,92(sp)
    4df4:	dc801515 	stw	r18,84(sp)
    4df8:	dc001315 	stw	r16,76(sp)
    4dfc:	dfc01c15 	stw	ra,112(sp)
    4e00:	dd801915 	stw	r22,100(sp)
    4e04:	dd401815 	stw	r21,96(sp)
    4e08:	dcc01615 	stw	r19,88(sp)
    4e0c:	dc401415 	stw	r17,80(sp)
    4e10:	d9001015 	stw	r4,64(sp)
    4e14:	2829883a 	mov	r20,r5
    4e18:	d9c01115 	stw	r7,68(sp)
    4e1c:	3025883a 	mov	r18,r6
    4e20:	0021883a 	mov	r16,zero
    4e24:	d8000f15 	stw	zero,60(sp)
    4e28:	d8000e15 	stw	zero,56(sp)
    4e2c:	0039883a 	mov	fp,zero
    4e30:	d8000915 	stw	zero,36(sp)
    4e34:	d8000d15 	stw	zero,52(sp)
    4e38:	d8000c15 	stw	zero,48(sp)
    4e3c:	d8000b15 	stw	zero,44(sp)
    4e40:	002f883a 	mov	r23,zero
    4e44:	91400003 	ldbu	r5,0(r18)
    4e48:	01c00044 	movi	r7,1
    4e4c:	94800044 	addi	r18,r18,1
    4e50:	29003fcc 	andi	r4,r5,255
    4e54:	2100201c 	xori	r4,r4,128
    4e58:	213fe004 	addi	r4,r4,-128
    4e5c:	20001526 	beq	r4,zero,4eb4 <___vfprintf_internal_r+0xd0>
    4e60:	81c03526 	beq	r16,r7,4f38 <___vfprintf_internal_r+0x154>
    4e64:	3c002016 	blt	r7,r16,4ee8 <___vfprintf_internal_r+0x104>
    4e68:	803ff61e 	bne	r16,zero,4e44 <___vfprintf_internal_r+0x60>
    4e6c:	00800944 	movi	r2,37
    4e70:	2081501e 	bne	r4,r2,53b4 <___vfprintf_internal_r+0x5d0>
    4e74:	073fffc4 	movi	fp,-1
    4e78:	00800284 	movi	r2,10
    4e7c:	d9c00c15 	stw	r7,48(sp)
    4e80:	d8000f15 	stw	zero,60(sp)
    4e84:	d8000e15 	stw	zero,56(sp)
    4e88:	df000915 	stw	fp,36(sp)
    4e8c:	d8800d15 	stw	r2,52(sp)
    4e90:	d8000b15 	stw	zero,44(sp)
    4e94:	91400003 	ldbu	r5,0(r18)
    4e98:	3821883a 	mov	r16,r7
    4e9c:	94800044 	addi	r18,r18,1
    4ea0:	29003fcc 	andi	r4,r5,255
    4ea4:	2100201c 	xori	r4,r4,128
    4ea8:	213fe004 	addi	r4,r4,-128
    4eac:	01c00044 	movi	r7,1
    4eb0:	203feb1e 	bne	r4,zero,4e60 <___vfprintf_internal_r+0x7c>
    4eb4:	b805883a 	mov	r2,r23
    4eb8:	dfc01c17 	ldw	ra,112(sp)
    4ebc:	df001b17 	ldw	fp,108(sp)
    4ec0:	ddc01a17 	ldw	r23,104(sp)
    4ec4:	dd801917 	ldw	r22,100(sp)
    4ec8:	dd401817 	ldw	r21,96(sp)
    4ecc:	dd001717 	ldw	r20,92(sp)
    4ed0:	dcc01617 	ldw	r19,88(sp)
    4ed4:	dc801517 	ldw	r18,84(sp)
    4ed8:	dc401417 	ldw	r17,80(sp)
    4edc:	dc001317 	ldw	r16,76(sp)
    4ee0:	dec01d04 	addi	sp,sp,116
    4ee4:	f800283a 	ret
    4ee8:	00800084 	movi	r2,2
    4eec:	80801726 	beq	r16,r2,4f4c <___vfprintf_internal_r+0x168>
    4ef0:	008000c4 	movi	r2,3
    4ef4:	80bfd31e 	bne	r16,r2,4e44 <___vfprintf_internal_r+0x60>
    4ef8:	2c7ff404 	addi	r17,r5,-48
    4efc:	88c03fcc 	andi	r3,r17,255
    4f00:	00800244 	movi	r2,9
    4f04:	10c02136 	bltu	r2,r3,4f8c <___vfprintf_internal_r+0x1a8>
    4f08:	d8c00917 	ldw	r3,36(sp)
    4f0c:	18012716 	blt	r3,zero,53ac <___vfprintf_internal_r+0x5c8>
    4f10:	d9000917 	ldw	r4,36(sp)
    4f14:	01400284 	movi	r5,10
    4f18:	0004c940 	call	4c94 <__mulsi3>
    4f1c:	1007883a 	mov	r3,r2
    4f20:	88803fcc 	andi	r2,r17,255
    4f24:	1080201c 	xori	r2,r2,128
    4f28:	10bfe004 	addi	r2,r2,-128
    4f2c:	1887883a 	add	r3,r3,r2
    4f30:	d8c00915 	stw	r3,36(sp)
    4f34:	003fc306 	br	4e44 <___vfprintf_internal_r+0x60>
    4f38:	00800c04 	movi	r2,48
    4f3c:	2080b326 	beq	r4,r2,520c <___vfprintf_internal_r+0x428>
    4f40:	00800944 	movi	r2,37
    4f44:	20812726 	beq	r4,r2,53e4 <___vfprintf_internal_r+0x600>
    4f48:	04000084 	movi	r16,2
    4f4c:	2c7ff404 	addi	r17,r5,-48
    4f50:	88c03fcc 	andi	r3,r17,255
    4f54:	00800244 	movi	r2,9
    4f58:	10c00a36 	bltu	r2,r3,4f84 <___vfprintf_internal_r+0x1a0>
    4f5c:	e000b416 	blt	fp,zero,5230 <___vfprintf_internal_r+0x44c>
    4f60:	e009883a 	mov	r4,fp
    4f64:	01400284 	movi	r5,10
    4f68:	0004c940 	call	4c94 <__mulsi3>
    4f6c:	1007883a 	mov	r3,r2
    4f70:	88803fcc 	andi	r2,r17,255
    4f74:	1080201c 	xori	r2,r2,128
    4f78:	10bfe004 	addi	r2,r2,-128
    4f7c:	18b9883a 	add	fp,r3,r2
    4f80:	003fb006 	br	4e44 <___vfprintf_internal_r+0x60>
    4f84:	00800b84 	movi	r2,46
    4f88:	2080a326 	beq	r4,r2,5218 <___vfprintf_internal_r+0x434>
    4f8c:	00801b04 	movi	r2,108
    4f90:	2080a326 	beq	r4,r2,5220 <___vfprintf_internal_r+0x43c>
    4f94:	d8c00917 	ldw	r3,36(sp)
    4f98:	1800a716 	blt	r3,zero,5238 <___vfprintf_internal_r+0x454>
    4f9c:	d8000f15 	stw	zero,60(sp)
    4fa0:	28bfea04 	addi	r2,r5,-88
    4fa4:	10803fcc 	andi	r2,r2,255
    4fa8:	00c00804 	movi	r3,32
    4fac:	18802836 	bltu	r3,r2,5050 <___vfprintf_internal_r+0x26c>
    4fb0:	1085883a 	add	r2,r2,r2
    4fb4:	1085883a 	add	r2,r2,r2
    4fb8:	00c00034 	movhi	r3,0
    4fbc:	18d3f304 	addi	r3,r3,20428
    4fc0:	10c5883a 	add	r2,r2,r3
    4fc4:	11000017 	ldw	r4,0(r2)
    4fc8:	2000683a 	jmp	r4
    4fcc:	00005058 	cmpnei	zero,zero,321
    4fd0:	00005050 	cmplti	zero,zero,321
    4fd4:	00005050 	cmplti	zero,zero,321
    4fd8:	00005050 	cmplti	zero,zero,321
    4fdc:	00005050 	cmplti	zero,zero,321
    4fe0:	00005050 	cmplti	zero,zero,321
    4fe4:	00005050 	cmplti	zero,zero,321
    4fe8:	00005050 	cmplti	zero,zero,321
    4fec:	00005050 	cmplti	zero,zero,321
    4ff0:	00005050 	cmplti	zero,zero,321
    4ff4:	00005050 	cmplti	zero,zero,321
    4ff8:	00005284 	movi	zero,330
    4ffc:	0000506c 	andhi	zero,zero,321
    5000:	00005050 	cmplti	zero,zero,321
    5004:	00005050 	cmplti	zero,zero,321
    5008:	00005050 	cmplti	zero,zero,321
    500c:	00005050 	cmplti	zero,zero,321
    5010:	0000506c 	andhi	zero,zero,321
    5014:	00005050 	cmplti	zero,zero,321
    5018:	00005050 	cmplti	zero,zero,321
    501c:	00005050 	cmplti	zero,zero,321
    5020:	00005050 	cmplti	zero,zero,321
    5024:	00005050 	cmplti	zero,zero,321
    5028:	000052ec 	andhi	zero,zero,331
    502c:	00005050 	cmplti	zero,zero,321
    5030:	00005050 	cmplti	zero,zero,321
    5034:	00005050 	cmplti	zero,zero,321
    5038:	000052fc 	xorhi	zero,zero,331
    503c:	00005050 	cmplti	zero,zero,321
    5040:	000051d0 	cmplti	zero,zero,327
    5044:	00005050 	cmplti	zero,zero,321
    5048:	00005050 	cmplti	zero,zero,321
    504c:	000051c8 	cmpgei	zero,zero,327
    5050:	0021883a 	mov	r16,zero
    5054:	003f7b06 	br	4e44 <___vfprintf_internal_r+0x60>
    5058:	00c00404 	movi	r3,16
    505c:	00800044 	movi	r2,1
    5060:	d8c00d15 	stw	r3,52(sp)
    5064:	d8000c15 	stw	zero,48(sp)
    5068:	d8800b15 	stw	r2,44(sp)
    506c:	d8c00e17 	ldw	r3,56(sp)
    5070:	1805003a 	cmpeq	r2,r3,zero
    5074:	10005a1e 	bne	r2,zero,51e0 <___vfprintf_internal_r+0x3fc>
    5078:	d8800c17 	ldw	r2,48(sp)
    507c:	1000781e 	bne	r2,zero,5260 <___vfprintf_internal_r+0x47c>
    5080:	d8801117 	ldw	r2,68(sp)
    5084:	d8000a15 	stw	zero,40(sp)
    5088:	14400017 	ldw	r17,0(r2)
    508c:	11c00104 	addi	r7,r2,4
    5090:	d9c01115 	stw	r7,68(sp)
    5094:	88005a26 	beq	r17,zero,5200 <___vfprintf_internal_r+0x41c>
    5098:	d8c00b17 	ldw	r3,44(sp)
    509c:	dcc00044 	addi	r19,sp,1
    50a0:	05800244 	movi	r22,9
    50a4:	182b003a 	cmpeq	r21,r3,zero
    50a8:	dcc01215 	stw	r19,72(sp)
    50ac:	00000506 	br	50c4 <___vfprintf_internal_r+0x2e0>
    50b0:	21000c04 	addi	r4,r4,48
    50b4:	99000005 	stb	r4,0(r19)
    50b8:	9cc00044 	addi	r19,r19,1
    50bc:	80000f26 	beq	r16,zero,50fc <___vfprintf_internal_r+0x318>
    50c0:	8023883a 	mov	r17,r16
    50c4:	d9400d17 	ldw	r5,52(sp)
    50c8:	8809883a 	mov	r4,r17
    50cc:	00057340 	call	5734 <__udivsi3>
    50d0:	d9000d17 	ldw	r4,52(sp)
    50d4:	100b883a 	mov	r5,r2
    50d8:	1021883a 	mov	r16,r2
    50dc:	0004c940 	call	4c94 <__mulsi3>
    50e0:	8889c83a 	sub	r4,r17,r2
    50e4:	b13ff20e 	bge	r22,r4,50b0 <___vfprintf_internal_r+0x2cc>
    50e8:	a8009f1e 	bne	r21,zero,5368 <___vfprintf_internal_r+0x584>
    50ec:	21000dc4 	addi	r4,r4,55
    50f0:	99000005 	stb	r4,0(r19)
    50f4:	9cc00044 	addi	r19,r19,1
    50f8:	803ff11e 	bne	r16,zero,50c0 <___vfprintf_internal_r+0x2dc>
    50fc:	d8801217 	ldw	r2,72(sp)
    5100:	98a3c83a 	sub	r17,r19,r2
    5104:	d8c00917 	ldw	r3,36(sp)
    5108:	1c4bc83a 	sub	r5,r3,r17
    510c:	0140130e 	bge	zero,r5,515c <___vfprintf_internal_r+0x378>
    5110:	d8c00044 	addi	r3,sp,1
    5114:	18800804 	addi	r2,r3,32
    5118:	9880102e 	bgeu	r19,r2,515c <___vfprintf_internal_r+0x378>
    511c:	00800c04 	movi	r2,48
    5120:	28ffffc4 	addi	r3,r5,-1
    5124:	98800005 	stb	r2,0(r19)
    5128:	99000044 	addi	r4,r19,1
    512c:	00c0080e 	bge	zero,r3,5150 <___vfprintf_internal_r+0x36c>
    5130:	d8c00044 	addi	r3,sp,1
    5134:	18800804 	addi	r2,r3,32
    5138:	2080052e 	bgeu	r4,r2,5150 <___vfprintf_internal_r+0x36c>
    513c:	00800c04 	movi	r2,48
    5140:	20800005 	stb	r2,0(r4)
    5144:	21000044 	addi	r4,r4,1
    5148:	9945883a 	add	r2,r19,r5
    514c:	20bff81e 	bne	r4,r2,5130 <___vfprintf_internal_r+0x34c>
    5150:	d8801217 	ldw	r2,72(sp)
    5154:	2027883a 	mov	r19,r4
    5158:	20a3c83a 	sub	r17,r4,r2
    515c:	d8c00a17 	ldw	r3,40(sp)
    5160:	1c45883a 	add	r2,r3,r17
    5164:	e0a1c83a 	sub	r16,fp,r2
    5168:	d8800f17 	ldw	r2,60(sp)
    516c:	10008026 	beq	r2,zero,5370 <___vfprintf_internal_r+0x58c>
    5170:	1805003a 	cmpeq	r2,r3,zero
    5174:	1000ae26 	beq	r2,zero,5430 <___vfprintf_internal_r+0x64c>
    5178:	0400a516 	blt	zero,r16,5410 <___vfprintf_internal_r+0x62c>
    517c:	b805883a 	mov	r2,r23
    5180:	0440950e 	bge	zero,r17,53d8 <___vfprintf_internal_r+0x5f4>
    5184:	102f883a 	mov	r23,r2
    5188:	1461883a 	add	r16,r2,r17
    518c:	00000206 	br	5198 <___vfprintf_internal_r+0x3b4>
    5190:	bdc00044 	addi	r23,r23,1
    5194:	85ffae26 	beq	r16,r23,5050 <___vfprintf_internal_r+0x26c>
    5198:	9cffffc4 	addi	r19,r19,-1
    519c:	98800003 	ldbu	r2,0(r19)
    51a0:	a0c00117 	ldw	r3,4(r20)
    51a4:	d9001017 	ldw	r4,64(sp)
    51a8:	d8800005 	stb	r2,0(sp)
    51ac:	a00b883a 	mov	r5,r20
    51b0:	d80d883a 	mov	r6,sp
    51b4:	01c00044 	movi	r7,1
    51b8:	183ee83a 	callr	r3
    51bc:	103ff426 	beq	r2,zero,5190 <___vfprintf_internal_r+0x3ac>
    51c0:	05ffffc4 	movi	r23,-1
    51c4:	003f3b06 	br	4eb4 <___vfprintf_internal_r+0xd0>
    51c8:	00c00404 	movi	r3,16
    51cc:	d8c00d15 	stw	r3,52(sp)
    51d0:	d8000c15 	stw	zero,48(sp)
    51d4:	d8c00e17 	ldw	r3,56(sp)
    51d8:	1805003a 	cmpeq	r2,r3,zero
    51dc:	103fa626 	beq	r2,zero,5078 <___vfprintf_internal_r+0x294>
    51e0:	d8c00c17 	ldw	r3,48(sp)
    51e4:	1800171e 	bne	r3,zero,5244 <___vfprintf_internal_r+0x460>
    51e8:	d8c01117 	ldw	r3,68(sp)
    51ec:	d8000a15 	stw	zero,40(sp)
    51f0:	1c400017 	ldw	r17,0(r3)
    51f4:	19c00104 	addi	r7,r3,4
    51f8:	d9c01115 	stw	r7,68(sp)
    51fc:	883fa61e 	bne	r17,zero,5098 <___vfprintf_internal_r+0x2b4>
    5200:	dcc00044 	addi	r19,sp,1
    5204:	dcc01215 	stw	r19,72(sp)
    5208:	003fbe06 	br	5104 <___vfprintf_internal_r+0x320>
    520c:	04000084 	movi	r16,2
    5210:	d9c00f15 	stw	r7,60(sp)
    5214:	003f0b06 	br	4e44 <___vfprintf_internal_r+0x60>
    5218:	040000c4 	movi	r16,3
    521c:	003f0906 	br	4e44 <___vfprintf_internal_r+0x60>
    5220:	00800044 	movi	r2,1
    5224:	040000c4 	movi	r16,3
    5228:	d8800e15 	stw	r2,56(sp)
    522c:	003f0506 	br	4e44 <___vfprintf_internal_r+0x60>
    5230:	0007883a 	mov	r3,zero
    5234:	003f4e06 	br	4f70 <___vfprintf_internal_r+0x18c>
    5238:	00800044 	movi	r2,1
    523c:	d8800915 	stw	r2,36(sp)
    5240:	003f5706 	br	4fa0 <___vfprintf_internal_r+0x1bc>
    5244:	d8801117 	ldw	r2,68(sp)
    5248:	14400017 	ldw	r17,0(r2)
    524c:	10800104 	addi	r2,r2,4
    5250:	d8801115 	stw	r2,68(sp)
    5254:	88000716 	blt	r17,zero,5274 <___vfprintf_internal_r+0x490>
    5258:	d8000a15 	stw	zero,40(sp)
    525c:	003f8d06 	br	5094 <___vfprintf_internal_r+0x2b0>
    5260:	d8c01117 	ldw	r3,68(sp)
    5264:	1c400017 	ldw	r17,0(r3)
    5268:	18c00104 	addi	r3,r3,4
    526c:	d8c01115 	stw	r3,68(sp)
    5270:	883ff90e 	bge	r17,zero,5258 <___vfprintf_internal_r+0x474>
    5274:	00800044 	movi	r2,1
    5278:	0463c83a 	sub	r17,zero,r17
    527c:	d8800a15 	stw	r2,40(sp)
    5280:	003f8406 	br	5094 <___vfprintf_internal_r+0x2b0>
    5284:	04000044 	movi	r16,1
    5288:	8700080e 	bge	r16,fp,52ac <___vfprintf_internal_r+0x4c8>
    528c:	d9001017 	ldw	r4,64(sp)
    5290:	a00b883a 	mov	r5,r20
    5294:	01800804 	movi	r6,32
    5298:	e1ffffc4 	addi	r7,fp,-1
    529c:	0004d640 	call	4d64 <print_repeat>
    52a0:	103fc71e 	bne	r2,zero,51c0 <___vfprintf_internal_r+0x3dc>
    52a4:	e5c5883a 	add	r2,fp,r23
    52a8:	15ffffc4 	addi	r23,r2,-1
    52ac:	d8c01117 	ldw	r3,68(sp)
    52b0:	d9001017 	ldw	r4,64(sp)
    52b4:	800f883a 	mov	r7,r16
    52b8:	18800017 	ldw	r2,0(r3)
    52bc:	a0c00117 	ldw	r3,4(r20)
    52c0:	a00b883a 	mov	r5,r20
    52c4:	d8800005 	stb	r2,0(sp)
    52c8:	d80d883a 	mov	r6,sp
    52cc:	183ee83a 	callr	r3
    52d0:	103fbb1e 	bne	r2,zero,51c0 <___vfprintf_internal_r+0x3dc>
    52d4:	d8801117 	ldw	r2,68(sp)
    52d8:	bdc00044 	addi	r23,r23,1
    52dc:	0021883a 	mov	r16,zero
    52e0:	10800104 	addi	r2,r2,4
    52e4:	d8801115 	stw	r2,68(sp)
    52e8:	003ed606 	br	4e44 <___vfprintf_internal_r+0x60>
    52ec:	00800204 	movi	r2,8
    52f0:	d8800d15 	stw	r2,52(sp)
    52f4:	d8000c15 	stw	zero,48(sp)
    52f8:	003fb606 	br	51d4 <___vfprintf_internal_r+0x3f0>
    52fc:	d8c01117 	ldw	r3,68(sp)
    5300:	1cc00017 	ldw	r19,0(r3)
    5304:	9809883a 	mov	r4,r19
    5308:	00055600 	call	5560 <strlen>
    530c:	e0a1c83a 	sub	r16,fp,r2
    5310:	1023883a 	mov	r17,r2
    5314:	0400070e 	bge	zero,r16,5334 <___vfprintf_internal_r+0x550>
    5318:	d9001017 	ldw	r4,64(sp)
    531c:	a00b883a 	mov	r5,r20
    5320:	01800804 	movi	r6,32
    5324:	800f883a 	mov	r7,r16
    5328:	0004d640 	call	4d64 <print_repeat>
    532c:	103fa41e 	bne	r2,zero,51c0 <___vfprintf_internal_r+0x3dc>
    5330:	bc2f883a 	add	r23,r23,r16
    5334:	a0c00117 	ldw	r3,4(r20)
    5338:	d9001017 	ldw	r4,64(sp)
    533c:	980d883a 	mov	r6,r19
    5340:	a00b883a 	mov	r5,r20
    5344:	880f883a 	mov	r7,r17
    5348:	183ee83a 	callr	r3
    534c:	103f9c1e 	bne	r2,zero,51c0 <___vfprintf_internal_r+0x3dc>
    5350:	d8801117 	ldw	r2,68(sp)
    5354:	bc6f883a 	add	r23,r23,r17
    5358:	0021883a 	mov	r16,zero
    535c:	10800104 	addi	r2,r2,4
    5360:	d8801115 	stw	r2,68(sp)
    5364:	003eb706 	br	4e44 <___vfprintf_internal_r+0x60>
    5368:	210015c4 	addi	r4,r4,87
    536c:	003f5106 	br	50b4 <___vfprintf_internal_r+0x2d0>
    5370:	04003b16 	blt	zero,r16,5460 <___vfprintf_internal_r+0x67c>
    5374:	d8c00a17 	ldw	r3,40(sp)
    5378:	1805003a 	cmpeq	r2,r3,zero
    537c:	103f7f1e 	bne	r2,zero,517c <___vfprintf_internal_r+0x398>
    5380:	a0c00117 	ldw	r3,4(r20)
    5384:	d9001017 	ldw	r4,64(sp)
    5388:	00800b44 	movi	r2,45
    538c:	d8800005 	stb	r2,0(sp)
    5390:	a00b883a 	mov	r5,r20
    5394:	d80d883a 	mov	r6,sp
    5398:	01c00044 	movi	r7,1
    539c:	183ee83a 	callr	r3
    53a0:	103f871e 	bne	r2,zero,51c0 <___vfprintf_internal_r+0x3dc>
    53a4:	b8800044 	addi	r2,r23,1
    53a8:	003f7506 	br	5180 <___vfprintf_internal_r+0x39c>
    53ac:	0007883a 	mov	r3,zero
    53b0:	003edb06 	br	4f20 <___vfprintf_internal_r+0x13c>
    53b4:	a0c00117 	ldw	r3,4(r20)
    53b8:	d9001017 	ldw	r4,64(sp)
    53bc:	d9400005 	stb	r5,0(sp)
    53c0:	d80d883a 	mov	r6,sp
    53c4:	a00b883a 	mov	r5,r20
    53c8:	183ee83a 	callr	r3
    53cc:	103f7c1e 	bne	r2,zero,51c0 <___vfprintf_internal_r+0x3dc>
    53d0:	bdc00044 	addi	r23,r23,1
    53d4:	003e9b06 	br	4e44 <___vfprintf_internal_r+0x60>
    53d8:	102f883a 	mov	r23,r2
    53dc:	0021883a 	mov	r16,zero
    53e0:	003e9806 	br	4e44 <___vfprintf_internal_r+0x60>
    53e4:	a0c00117 	ldw	r3,4(r20)
    53e8:	d9000005 	stb	r4,0(sp)
    53ec:	d9001017 	ldw	r4,64(sp)
    53f0:	a00b883a 	mov	r5,r20
    53f4:	d80d883a 	mov	r6,sp
    53f8:	800f883a 	mov	r7,r16
    53fc:	183ee83a 	callr	r3
    5400:	103f6f1e 	bne	r2,zero,51c0 <___vfprintf_internal_r+0x3dc>
    5404:	bc2f883a 	add	r23,r23,r16
    5408:	0021883a 	mov	r16,zero
    540c:	003e8d06 	br	4e44 <___vfprintf_internal_r+0x60>
    5410:	d9001017 	ldw	r4,64(sp)
    5414:	a00b883a 	mov	r5,r20
    5418:	01800c04 	movi	r6,48
    541c:	800f883a 	mov	r7,r16
    5420:	0004d640 	call	4d64 <print_repeat>
    5424:	103f661e 	bne	r2,zero,51c0 <___vfprintf_internal_r+0x3dc>
    5428:	bc05883a 	add	r2,r23,r16
    542c:	003f5406 	br	5180 <___vfprintf_internal_r+0x39c>
    5430:	a0c00117 	ldw	r3,4(r20)
    5434:	d9001017 	ldw	r4,64(sp)
    5438:	00800b44 	movi	r2,45
    543c:	d8800005 	stb	r2,0(sp)
    5440:	a00b883a 	mov	r5,r20
    5444:	d80d883a 	mov	r6,sp
    5448:	01c00044 	movi	r7,1
    544c:	183ee83a 	callr	r3
    5450:	103f5b1e 	bne	r2,zero,51c0 <___vfprintf_internal_r+0x3dc>
    5454:	bdc00044 	addi	r23,r23,1
    5458:	043f480e 	bge	zero,r16,517c <___vfprintf_internal_r+0x398>
    545c:	003fec06 	br	5410 <___vfprintf_internal_r+0x62c>
    5460:	d9001017 	ldw	r4,64(sp)
    5464:	a00b883a 	mov	r5,r20
    5468:	01800804 	movi	r6,32
    546c:	800f883a 	mov	r7,r16
    5470:	0004d640 	call	4d64 <print_repeat>
    5474:	103f521e 	bne	r2,zero,51c0 <___vfprintf_internal_r+0x3dc>
    5478:	bc2f883a 	add	r23,r23,r16
    547c:	003fbd06 	br	5374 <___vfprintf_internal_r+0x590>

00005480 <__vfprintf_internal>:
    5480:	00800034 	movhi	r2,0
    5484:	109a6c04 	addi	r2,r2,27056
    5488:	2013883a 	mov	r9,r4
    548c:	11000017 	ldw	r4,0(r2)
    5490:	2805883a 	mov	r2,r5
    5494:	300f883a 	mov	r7,r6
    5498:	480b883a 	mov	r5,r9
    549c:	100d883a 	mov	r6,r2
    54a0:	0004de41 	jmpi	4de4 <___vfprintf_internal_r>

000054a4 <__sfvwrite_small_dev>:
    54a4:	2880000b 	ldhu	r2,0(r5)
    54a8:	defffa04 	addi	sp,sp,-24
    54ac:	dcc00315 	stw	r19,12(sp)
    54b0:	1080020c 	andi	r2,r2,8
    54b4:	dc800215 	stw	r18,8(sp)
    54b8:	dc400115 	stw	r17,4(sp)
    54bc:	dfc00515 	stw	ra,20(sp)
    54c0:	dd000415 	stw	r20,16(sp)
    54c4:	dc000015 	stw	r16,0(sp)
    54c8:	2825883a 	mov	r18,r5
    54cc:	2027883a 	mov	r19,r4
    54d0:	3023883a 	mov	r17,r6
    54d4:	10002026 	beq	r2,zero,5558 <__sfvwrite_small_dev+0xb4>
    54d8:	2940008f 	ldh	r5,2(r5)
    54dc:	28000f16 	blt	r5,zero,551c <__sfvwrite_small_dev+0x78>
    54e0:	01c01b0e 	bge	zero,r7,5550 <__sfvwrite_small_dev+0xac>
    54e4:	3821883a 	mov	r16,r7
    54e8:	05010004 	movi	r20,1024
    54ec:	00000206 	br	54f8 <__sfvwrite_small_dev+0x54>
    54f0:	0400170e 	bge	zero,r16,5550 <__sfvwrite_small_dev+0xac>
    54f4:	9140008f 	ldh	r5,2(r18)
    54f8:	880d883a 	mov	r6,r17
    54fc:	9809883a 	mov	r4,r19
    5500:	800f883a 	mov	r7,r16
    5504:	a400010e 	bge	r20,r16,550c <__sfvwrite_small_dev+0x68>
    5508:	01c10004 	movi	r7,1024
    550c:	00055800 	call	5580 <_write_r>
    5510:	88a3883a 	add	r17,r17,r2
    5514:	80a1c83a 	sub	r16,r16,r2
    5518:	00bff516 	blt	zero,r2,54f0 <__sfvwrite_small_dev+0x4c>
    551c:	9080000b 	ldhu	r2,0(r18)
    5520:	00ffffc4 	movi	r3,-1
    5524:	10801014 	ori	r2,r2,64
    5528:	9080000d 	sth	r2,0(r18)
    552c:	1805883a 	mov	r2,r3
    5530:	dfc00517 	ldw	ra,20(sp)
    5534:	dd000417 	ldw	r20,16(sp)
    5538:	dcc00317 	ldw	r19,12(sp)
    553c:	dc800217 	ldw	r18,8(sp)
    5540:	dc400117 	ldw	r17,4(sp)
    5544:	dc000017 	ldw	r16,0(sp)
    5548:	dec00604 	addi	sp,sp,24
    554c:	f800283a 	ret
    5550:	0007883a 	mov	r3,zero
    5554:	003ff506 	br	552c <__sfvwrite_small_dev+0x88>
    5558:	00ffffc4 	movi	r3,-1
    555c:	003ff306 	br	552c <__sfvwrite_small_dev+0x88>

00005560 <strlen>:
    5560:	20800007 	ldb	r2,0(r4)
    5564:	10000526 	beq	r2,zero,557c <strlen+0x1c>
    5568:	2007883a 	mov	r3,r4
    556c:	18c00044 	addi	r3,r3,1
    5570:	18800007 	ldb	r2,0(r3)
    5574:	103ffd1e 	bne	r2,zero,556c <strlen+0xc>
    5578:	1905c83a 	sub	r2,r3,r4
    557c:	f800283a 	ret

00005580 <_write_r>:
    5580:	defffd04 	addi	sp,sp,-12
    5584:	dc000015 	stw	r16,0(sp)
    5588:	04000034 	movhi	r16,0
    558c:	841b3504 	addi	r16,r16,27860
    5590:	dc400115 	stw	r17,4(sp)
    5594:	80000015 	stw	zero,0(r16)
    5598:	2023883a 	mov	r17,r4
    559c:	2809883a 	mov	r4,r5
    55a0:	300b883a 	mov	r5,r6
    55a4:	380d883a 	mov	r6,r7
    55a8:	dfc00215 	stw	ra,8(sp)
    55ac:	00058580 	call	5858 <write>
    55b0:	1007883a 	mov	r3,r2
    55b4:	00bfffc4 	movi	r2,-1
    55b8:	18800626 	beq	r3,r2,55d4 <_write_r+0x54>
    55bc:	1805883a 	mov	r2,r3
    55c0:	dfc00217 	ldw	ra,8(sp)
    55c4:	dc400117 	ldw	r17,4(sp)
    55c8:	dc000017 	ldw	r16,0(sp)
    55cc:	dec00304 	addi	sp,sp,12
    55d0:	f800283a 	ret
    55d4:	80800017 	ldw	r2,0(r16)
    55d8:	103ff826 	beq	r2,zero,55bc <_write_r+0x3c>
    55dc:	88800015 	stw	r2,0(r17)
    55e0:	1805883a 	mov	r2,r3
    55e4:	dfc00217 	ldw	ra,8(sp)
    55e8:	dc400117 	ldw	r17,4(sp)
    55ec:	dc000017 	ldw	r16,0(sp)
    55f0:	dec00304 	addi	sp,sp,12
    55f4:	f800283a 	ret

000055f8 <udivmodsi4>:
    55f8:	29001b2e 	bgeu	r5,r4,5668 <udivmodsi4+0x70>
    55fc:	28001a16 	blt	r5,zero,5668 <udivmodsi4+0x70>
    5600:	00800044 	movi	r2,1
    5604:	0007883a 	mov	r3,zero
    5608:	01c007c4 	movi	r7,31
    560c:	00000306 	br	561c <udivmodsi4+0x24>
    5610:	19c01326 	beq	r3,r7,5660 <udivmodsi4+0x68>
    5614:	18c00044 	addi	r3,r3,1
    5618:	28000416 	blt	r5,zero,562c <udivmodsi4+0x34>
    561c:	294b883a 	add	r5,r5,r5
    5620:	1085883a 	add	r2,r2,r2
    5624:	293ffa36 	bltu	r5,r4,5610 <udivmodsi4+0x18>
    5628:	10000d26 	beq	r2,zero,5660 <udivmodsi4+0x68>
    562c:	0007883a 	mov	r3,zero
    5630:	21400236 	bltu	r4,r5,563c <udivmodsi4+0x44>
    5634:	2149c83a 	sub	r4,r4,r5
    5638:	1886b03a 	or	r3,r3,r2
    563c:	1004d07a 	srli	r2,r2,1
    5640:	280ad07a 	srli	r5,r5,1
    5644:	103ffa1e 	bne	r2,zero,5630 <udivmodsi4+0x38>
    5648:	30000226 	beq	r6,zero,5654 <udivmodsi4+0x5c>
    564c:	2005883a 	mov	r2,r4
    5650:	f800283a 	ret
    5654:	1809883a 	mov	r4,r3
    5658:	2005883a 	mov	r2,r4
    565c:	f800283a 	ret
    5660:	0007883a 	mov	r3,zero
    5664:	003ff806 	br	5648 <udivmodsi4+0x50>
    5668:	00800044 	movi	r2,1
    566c:	0007883a 	mov	r3,zero
    5670:	003fef06 	br	5630 <udivmodsi4+0x38>

00005674 <__divsi3>:
    5674:	defffe04 	addi	sp,sp,-8
    5678:	dc000015 	stw	r16,0(sp)
    567c:	dfc00115 	stw	ra,4(sp)
    5680:	0021883a 	mov	r16,zero
    5684:	20000c16 	blt	r4,zero,56b8 <__divsi3+0x44>
    5688:	000d883a 	mov	r6,zero
    568c:	28000e16 	blt	r5,zero,56c8 <__divsi3+0x54>
    5690:	00055f80 	call	55f8 <udivmodsi4>
    5694:	1007883a 	mov	r3,r2
    5698:	8005003a 	cmpeq	r2,r16,zero
    569c:	1000011e 	bne	r2,zero,56a4 <__divsi3+0x30>
    56a0:	00c7c83a 	sub	r3,zero,r3
    56a4:	1805883a 	mov	r2,r3
    56a8:	dfc00117 	ldw	ra,4(sp)
    56ac:	dc000017 	ldw	r16,0(sp)
    56b0:	dec00204 	addi	sp,sp,8
    56b4:	f800283a 	ret
    56b8:	0109c83a 	sub	r4,zero,r4
    56bc:	04000044 	movi	r16,1
    56c0:	000d883a 	mov	r6,zero
    56c4:	283ff20e 	bge	r5,zero,5690 <__divsi3+0x1c>
    56c8:	014bc83a 	sub	r5,zero,r5
    56cc:	8021003a 	cmpeq	r16,r16,zero
    56d0:	003fef06 	br	5690 <__divsi3+0x1c>

000056d4 <__modsi3>:
    56d4:	deffff04 	addi	sp,sp,-4
    56d8:	dfc00015 	stw	ra,0(sp)
    56dc:	01800044 	movi	r6,1
    56e0:	2807883a 	mov	r3,r5
    56e4:	20000416 	blt	r4,zero,56f8 <__modsi3+0x24>
    56e8:	28000c16 	blt	r5,zero,571c <__modsi3+0x48>
    56ec:	dfc00017 	ldw	ra,0(sp)
    56f0:	dec00104 	addi	sp,sp,4
    56f4:	00055f81 	jmpi	55f8 <udivmodsi4>
    56f8:	0109c83a 	sub	r4,zero,r4
    56fc:	28000b16 	blt	r5,zero,572c <__modsi3+0x58>
    5700:	180b883a 	mov	r5,r3
    5704:	01800044 	movi	r6,1
    5708:	00055f80 	call	55f8 <udivmodsi4>
    570c:	0085c83a 	sub	r2,zero,r2
    5710:	dfc00017 	ldw	ra,0(sp)
    5714:	dec00104 	addi	sp,sp,4
    5718:	f800283a 	ret
    571c:	014bc83a 	sub	r5,zero,r5
    5720:	dfc00017 	ldw	ra,0(sp)
    5724:	dec00104 	addi	sp,sp,4
    5728:	00055f81 	jmpi	55f8 <udivmodsi4>
    572c:	0147c83a 	sub	r3,zero,r5
    5730:	003ff306 	br	5700 <__modsi3+0x2c>

00005734 <__udivsi3>:
    5734:	000d883a 	mov	r6,zero
    5738:	00055f81 	jmpi	55f8 <udivmodsi4>

0000573c <__umodsi3>:
    573c:	01800044 	movi	r6,1
    5740:	00055f81 	jmpi	55f8 <udivmodsi4>

00005744 <alt_load>:
    5744:	deffff04 	addi	sp,sp,-4
    5748:	dfc00015 	stw	ra,0(sp)
    574c:	01000034 	movhi	r4,0
    5750:	211a7704 	addi	r4,r4,27100
    5754:	00c00034 	movhi	r3,0
    5758:	18d9b904 	addi	r3,r3,26340
    575c:	20c00926 	beq	r4,r3,5784 <alt_load+0x40>
    5760:	01800034 	movhi	r6,0
    5764:	319a7704 	addi	r6,r6,27100
    5768:	19800626 	beq	r3,r6,5784 <alt_load+0x40>
    576c:	01400104 	movi	r5,4
    5770:	20800017 	ldw	r2,0(r4)
    5774:	18800015 	stw	r2,0(r3)
    5778:	1947883a 	add	r3,r3,r5
    577c:	2149883a 	add	r4,r4,r5
    5780:	30fffb1e 	bne	r6,r3,5770 <alt_load+0x2c>
    5784:	01000034 	movhi	r4,0
    5788:	21100804 	addi	r4,r4,16416
    578c:	00c00034 	movhi	r3,0
    5790:	18d00804 	addi	r3,r3,16416
    5794:	20c00926 	beq	r4,r3,57bc <alt_load+0x78>
    5798:	01800034 	movhi	r6,0
    579c:	31905a04 	addi	r6,r6,16744
    57a0:	19800626 	beq	r3,r6,57bc <alt_load+0x78>
    57a4:	01400104 	movi	r5,4
    57a8:	20800017 	ldw	r2,0(r4)
    57ac:	18800015 	stw	r2,0(r3)
    57b0:	1947883a 	add	r3,r3,r5
    57b4:	2149883a 	add	r4,r4,r5
    57b8:	30fffb1e 	bne	r6,r3,57a8 <alt_load+0x64>
    57bc:	01000034 	movhi	r4,0
    57c0:	21196b04 	addi	r4,r4,26028
    57c4:	00c00034 	movhi	r3,0
    57c8:	18d96b04 	addi	r3,r3,26028
    57cc:	20c00926 	beq	r4,r3,57f4 <alt_load+0xb0>
    57d0:	01800034 	movhi	r6,0
    57d4:	3199b904 	addi	r6,r6,26340
    57d8:	19800626 	beq	r3,r6,57f4 <alt_load+0xb0>
    57dc:	01400104 	movi	r5,4
    57e0:	20800017 	ldw	r2,0(r4)
    57e4:	18800015 	stw	r2,0(r3)
    57e8:	1947883a 	add	r3,r3,r5
    57ec:	2149883a 	add	r4,r4,r5
    57f0:	30fffb1e 	bne	r6,r3,57e0 <alt_load+0x9c>
    57f4:	0005c280 	call	5c28 <alt_dcache_flush_all>
    57f8:	0005ca40 	call	5ca4 <alt_icache_flush_all>
    57fc:	dfc00017 	ldw	ra,0(sp)
    5800:	dec00104 	addi	sp,sp,4
    5804:	f800283a 	ret

00005808 <alt_main>:
    5808:	defffe04 	addi	sp,sp,-8
    580c:	dfc00115 	stw	ra,4(sp)
    5810:	dc000015 	stw	r16,0(sp)
    5814:	0009883a 	mov	r4,zero
    5818:	00059a40 	call	59a4 <alt_irq_init>
    581c:	00059680 	call	5968 <alt_sys_init>
    5820:	01800034 	movhi	r6,0
    5824:	3199b104 	addi	r6,r6,26308
    5828:	3009883a 	mov	r4,r6
    582c:	300b883a 	mov	r5,r6
    5830:	0005e400 	call	5e40 <alt_io_redirect>
    5834:	d120d017 	ldw	r4,-31936(gp)
    5838:	d160d117 	ldw	r5,-31932(gp)
    583c:	d1a0d217 	ldw	r6,-31928(gp)
    5840:	00041a40 	call	41a4 <main>
    5844:	1021883a 	mov	r16,r2
    5848:	01000044 	movi	r4,1
    584c:	0005b480 	call	5b48 <close>
    5850:	8009883a 	mov	r4,r16
    5854:	00063780 	call	6378 <exit>

00005858 <write>:
    5858:	defffd04 	addi	sp,sp,-12
    585c:	dfc00215 	stw	ra,8(sp)
    5860:	dc400115 	stw	r17,4(sp)
    5864:	dc000015 	stw	r16,0(sp)
    5868:	2821883a 	mov	r16,r5
    586c:	3023883a 	mov	r17,r6
    5870:	20002b16 	blt	r4,zero,5920 <write+0xc8>
    5874:	01400304 	movi	r5,12
    5878:	0004c940 	call	4c94 <__mulsi3>
    587c:	00c00034 	movhi	r3,0
    5880:	18da0604 	addi	r3,r3,26648
    5884:	10c9883a 	add	r4,r2,r3
    5888:	20002526 	beq	r4,zero,5920 <write+0xc8>
    588c:	20800217 	ldw	r2,8(r4)
    5890:	108000cc 	andi	r2,r2,3
    5894:	10001526 	beq	r2,zero,58ec <write+0x94>
    5898:	20800017 	ldw	r2,0(r4)
    589c:	10800617 	ldw	r2,24(r2)
    58a0:	10001226 	beq	r2,zero,58ec <write+0x94>
    58a4:	800b883a 	mov	r5,r16
    58a8:	880d883a 	mov	r6,r17
    58ac:	103ee83a 	callr	r2
    58b0:	1021883a 	mov	r16,r2
    58b4:	1000260e 	bge	r2,zero,5950 <write+0xf8>
    58b8:	00800034 	movhi	r2,0
    58bc:	109a7304 	addi	r2,r2,27084
    58c0:	10800017 	ldw	r2,0(r2)
    58c4:	1000031e 	bne	r2,zero,58d4 <write+0x7c>
    58c8:	00c00034 	movhi	r3,0
    58cc:	18db3504 	addi	r3,r3,27860
    58d0:	00000206 	br	58dc <write+0x84>
    58d4:	103ee83a 	callr	r2
    58d8:	1007883a 	mov	r3,r2
    58dc:	0405c83a 	sub	r2,zero,r16
    58e0:	18800015 	stw	r2,0(r3)
    58e4:	043fffc4 	movi	r16,-1
    58e8:	00001906 	br	5950 <write+0xf8>
    58ec:	00800034 	movhi	r2,0
    58f0:	109a7304 	addi	r2,r2,27084
    58f4:	10800017 	ldw	r2,0(r2)
    58f8:	1000031e 	bne	r2,zero,5908 <write+0xb0>
    58fc:	00c00034 	movhi	r3,0
    5900:	18db3504 	addi	r3,r3,27860
    5904:	00000206 	br	5910 <write+0xb8>
    5908:	103ee83a 	callr	r2
    590c:	1007883a 	mov	r3,r2
    5910:	00800344 	movi	r2,13
    5914:	18800015 	stw	r2,0(r3)
    5918:	043fffc4 	movi	r16,-1
    591c:	00000c06 	br	5950 <write+0xf8>
    5920:	00800034 	movhi	r2,0
    5924:	109a7304 	addi	r2,r2,27084
    5928:	10800017 	ldw	r2,0(r2)
    592c:	1000031e 	bne	r2,zero,593c <write+0xe4>
    5930:	00c00034 	movhi	r3,0
    5934:	18db3504 	addi	r3,r3,27860
    5938:	00000206 	br	5944 <write+0xec>
    593c:	103ee83a 	callr	r2
    5940:	1007883a 	mov	r3,r2
    5944:	00801444 	movi	r2,81
    5948:	18800015 	stw	r2,0(r3)
    594c:	043fffc4 	movi	r16,-1
    5950:	8005883a 	mov	r2,r16
    5954:	dfc00217 	ldw	ra,8(sp)
    5958:	dc400117 	ldw	r17,4(sp)
    595c:	dc000017 	ldw	r16,0(sp)
    5960:	dec00304 	addi	sp,sp,12
    5964:	f800283a 	ret

00005968 <alt_sys_init>:
    5968:	deffff04 	addi	sp,sp,-4
    596c:	dfc00015 	stw	ra,0(sp)
    5970:	01240014 	movui	r4,36864
    5974:	000b883a 	mov	r5,zero
    5978:	000d883a 	mov	r6,zero
    597c:	01c0fa04 	movi	r7,1000
    5980:	0005abc0 	call	5abc <alt_avalon_timer_sc_init>
    5984:	01000034 	movhi	r4,0
    5988:	2119f104 	addi	r4,r4,26564
    598c:	01400034 	movhi	r5,0
    5990:	295a7004 	addi	r5,r5,27072
    5994:	0005c340 	call	5c34 <alt_dev_llist_insert>
    5998:	dfc00017 	ldw	ra,0(sp)
    599c:	dec00104 	addi	sp,sp,4
    59a0:	f800283a 	ret

000059a4 <alt_irq_init>:
    59a4:	deffff04 	addi	sp,sp,-4
    59a8:	dfc00015 	stw	ra,0(sp)
    59ac:	00061a40 	call	61a4 <altera_nios2_qsys_irq_init>
    59b0:	00800044 	movi	r2,1
    59b4:	1001703a 	wrctl	status,r2
    59b8:	dfc00017 	ldw	ra,0(sp)
    59bc:	dec00104 	addi	sp,sp,4
    59c0:	f800283a 	ret

000059c4 <altera_avalon_jtag_uart_write_fd>:
    59c4:	deffff04 	addi	sp,sp,-4
    59c8:	dfc00015 	stw	ra,0(sp)
    59cc:	2005883a 	mov	r2,r4
    59d0:	21000017 	ldw	r4,0(r4)
    59d4:	21000a04 	addi	r4,r4,40
    59d8:	11c00217 	ldw	r7,8(r2)
    59dc:	0005a800 	call	5a80 <altera_avalon_jtag_uart_write>
    59e0:	dfc00017 	ldw	ra,0(sp)
    59e4:	dec00104 	addi	sp,sp,4
    59e8:	f800283a 	ret

000059ec <altera_avalon_jtag_uart_read_fd>:
    59ec:	deffff04 	addi	sp,sp,-4
    59f0:	dfc00015 	stw	ra,0(sp)
    59f4:	2005883a 	mov	r2,r4
    59f8:	21000017 	ldw	r4,0(r4)
    59fc:	21000a04 	addi	r4,r4,40
    5a00:	11c00217 	ldw	r7,8(r2)
    5a04:	0005a140 	call	5a14 <altera_avalon_jtag_uart_read>
    5a08:	dfc00017 	ldw	ra,0(sp)
    5a0c:	dec00104 	addi	sp,sp,4
    5a10:	f800283a 	ret

00005a14 <altera_avalon_jtag_uart_read>:
    5a14:	21000017 	ldw	r4,0(r4)
    5a18:	2991883a 	add	r8,r5,r6
    5a1c:	2a00122e 	bgeu	r5,r8,5a68 <altera_avalon_jtag_uart_read+0x54>
    5a20:	2807883a 	mov	r3,r5
    5a24:	02a00014 	movui	r10,32768
    5a28:	02c00044 	movi	r11,1
    5a2c:	3890000c 	andi	r2,r7,16384
    5a30:	1012c03a 	cmpne	r9,r2,zero
    5a34:	21800037 	ldwio	r6,0(r4)
    5a38:	3284703a 	and	r2,r6,r10
    5a3c:	10000326 	beq	r2,zero,5a4c <altera_avalon_jtag_uart_read+0x38>
    5a40:	19800005 	stb	r6,0(r3)
    5a44:	1ac7883a 	add	r3,r3,r11
    5a48:	00000306 	br	5a58 <altera_avalon_jtag_uart_read+0x44>
    5a4c:	28c0041e 	bne	r5,r3,5a60 <altera_avalon_jtag_uart_read+0x4c>
    5a50:	4800091e 	bne	r9,zero,5a78 <altera_avalon_jtag_uart_read+0x64>
    5a54:	2807883a 	mov	r3,r5
    5a58:	1a3ff636 	bltu	r3,r8,5a34 <altera_avalon_jtag_uart_read+0x20>
    5a5c:	28c00226 	beq	r5,r3,5a68 <altera_avalon_jtag_uart_read+0x54>
    5a60:	1945c83a 	sub	r2,r3,r5
    5a64:	f800283a 	ret
    5a68:	3890000c 	andi	r2,r7,16384
    5a6c:	1000021e 	bne	r2,zero,5a78 <altera_avalon_jtag_uart_read+0x64>
    5a70:	00bffec4 	movi	r2,-5
    5a74:	f800283a 	ret
    5a78:	00bffd44 	movi	r2,-11
    5a7c:	f800283a 	ret

00005a80 <altera_avalon_jtag_uart_write>:
    5a80:	21000017 	ldw	r4,0(r4)
    5a84:	314f883a 	add	r7,r6,r5
    5a88:	29c00a2e 	bgeu	r5,r7,5ab4 <altera_avalon_jtag_uart_write+0x34>
    5a8c:	20c00104 	addi	r3,r4,4
    5a90:	023ffff4 	movhi	r8,65535
    5a94:	02400044 	movi	r9,1
    5a98:	18800037 	ldwio	r2,0(r3)
    5a9c:	1204703a 	and	r2,r2,r8
    5aa0:	10000326 	beq	r2,zero,5ab0 <altera_avalon_jtag_uart_write+0x30>
    5aa4:	28800007 	ldb	r2,0(r5)
    5aa8:	2a4b883a 	add	r5,r5,r9
    5aac:	20800035 	stwio	r2,0(r4)
    5ab0:	29fff936 	bltu	r5,r7,5a98 <altera_avalon_jtag_uart_write+0x18>
    5ab4:	3005883a 	mov	r2,r6
    5ab8:	f800283a 	ret

00005abc <alt_avalon_timer_sc_init>:
    5abc:	defffe04 	addi	sp,sp,-8
    5ac0:	dfc00115 	stw	ra,4(sp)
    5ac4:	2011883a 	mov	r8,r4
    5ac8:	00c00034 	movhi	r3,0
    5acc:	18db3a04 	addi	r3,r3,27880
    5ad0:	18800017 	ldw	r2,0(r3)
    5ad4:	1000011e 	bne	r2,zero,5adc <alt_avalon_timer_sc_init+0x20>
    5ad8:	19c00015 	stw	r7,0(r3)
    5adc:	008001c4 	movi	r2,7
    5ae0:	40800135 	stwio	r2,4(r8)
    5ae4:	d8000015 	stw	zero,0(sp)
    5ae8:	2809883a 	mov	r4,r5
    5aec:	300b883a 	mov	r5,r6
    5af0:	01800034 	movhi	r6,0
    5af4:	3196c304 	addi	r6,r6,23308
    5af8:	400f883a 	mov	r7,r8
    5afc:	0005d400 	call	5d40 <alt_ic_isr_register>
    5b00:	dfc00117 	ldw	ra,4(sp)
    5b04:	dec00204 	addi	sp,sp,8
    5b08:	f800283a 	ret

00005b0c <alt_avalon_timer_sc_irq>:
    5b0c:	defffe04 	addi	sp,sp,-8
    5b10:	dfc00115 	stw	ra,4(sp)
    5b14:	dc000015 	stw	r16,0(sp)
    5b18:	20000035 	stwio	zero,0(r4)
    5b1c:	20800137 	ldwio	r2,4(r4)
    5b20:	0021303a 	rdctl	r16,status
    5b24:	00bfff84 	movi	r2,-2
    5b28:	8084703a 	and	r2,r16,r2
    5b2c:	1001703a 	wrctl	status,r2
    5b30:	00060f80 	call	60f8 <alt_tick>
    5b34:	8001703a 	wrctl	status,r16
    5b38:	dfc00117 	ldw	ra,4(sp)
    5b3c:	dc000017 	ldw	r16,0(sp)
    5b40:	dec00204 	addi	sp,sp,8
    5b44:	f800283a 	ret

00005b48 <close>:
    5b48:	defffd04 	addi	sp,sp,-12
    5b4c:	dfc00215 	stw	ra,8(sp)
    5b50:	dc400115 	stw	r17,4(sp)
    5b54:	dc000015 	stw	r16,0(sp)
    5b58:	2021883a 	mov	r16,r4
    5b5c:	20001d16 	blt	r4,zero,5bd4 <close+0x8c>
    5b60:	01400304 	movi	r5,12
    5b64:	0004c940 	call	4c94 <__mulsi3>
    5b68:	00c00034 	movhi	r3,0
    5b6c:	18da0604 	addi	r3,r3,26648
    5b70:	10c9883a 	add	r4,r2,r3
    5b74:	20001726 	beq	r4,zero,5bd4 <close+0x8c>
    5b78:	20800017 	ldw	r2,0(r4)
    5b7c:	10800417 	ldw	r2,16(r2)
    5b80:	10002126 	beq	r2,zero,5c08 <close+0xc0>
    5b84:	103ee83a 	callr	r2
    5b88:	1023883a 	mov	r17,r2
    5b8c:	8009883a 	mov	r4,r16
    5b90:	000605c0 	call	605c <alt_release_fd>
    5b94:	88000216 	blt	r17,zero,5ba0 <close+0x58>
    5b98:	0005883a 	mov	r2,zero
    5b9c:	00001d06 	br	5c14 <close+0xcc>
    5ba0:	00800034 	movhi	r2,0
    5ba4:	109a7304 	addi	r2,r2,27084
    5ba8:	10800017 	ldw	r2,0(r2)
    5bac:	1000031e 	bne	r2,zero,5bbc <close+0x74>
    5bb0:	00c00034 	movhi	r3,0
    5bb4:	18db3504 	addi	r3,r3,27860
    5bb8:	00000206 	br	5bc4 <close+0x7c>
    5bbc:	103ee83a 	callr	r2
    5bc0:	1007883a 	mov	r3,r2
    5bc4:	0445c83a 	sub	r2,zero,r17
    5bc8:	18800015 	stw	r2,0(r3)
    5bcc:	00bfffc4 	movi	r2,-1
    5bd0:	00001006 	br	5c14 <close+0xcc>
    5bd4:	00800034 	movhi	r2,0
    5bd8:	109a7304 	addi	r2,r2,27084
    5bdc:	10800017 	ldw	r2,0(r2)
    5be0:	1000031e 	bne	r2,zero,5bf0 <close+0xa8>
    5be4:	00c00034 	movhi	r3,0
    5be8:	18db3504 	addi	r3,r3,27860
    5bec:	00000206 	br	5bf8 <close+0xb0>
    5bf0:	103ee83a 	callr	r2
    5bf4:	1007883a 	mov	r3,r2
    5bf8:	00801444 	movi	r2,81
    5bfc:	18800015 	stw	r2,0(r3)
    5c00:	00bfffc4 	movi	r2,-1
    5c04:	00000306 	br	5c14 <close+0xcc>
    5c08:	8009883a 	mov	r4,r16
    5c0c:	000605c0 	call	605c <alt_release_fd>
    5c10:	0005883a 	mov	r2,zero
    5c14:	dfc00217 	ldw	ra,8(sp)
    5c18:	dc400117 	ldw	r17,4(sp)
    5c1c:	dc000017 	ldw	r16,0(sp)
    5c20:	dec00304 	addi	sp,sp,12
    5c24:	f800283a 	ret

00005c28 <alt_dcache_flush_all>:
    5c28:	f800283a 	ret

00005c2c <alt_dev_null_write>:
    5c2c:	3005883a 	mov	r2,r6
    5c30:	f800283a 	ret

00005c34 <alt_dev_llist_insert>:
    5c34:	deffff04 	addi	sp,sp,-4
    5c38:	dfc00015 	stw	ra,0(sp)
    5c3c:	20000226 	beq	r4,zero,5c48 <alt_dev_llist_insert+0x14>
    5c40:	20800217 	ldw	r2,8(r4)
    5c44:	10000d1e 	bne	r2,zero,5c7c <alt_dev_llist_insert+0x48>
    5c48:	00800034 	movhi	r2,0
    5c4c:	109a7304 	addi	r2,r2,27084
    5c50:	10800017 	ldw	r2,0(r2)
    5c54:	1000031e 	bne	r2,zero,5c64 <alt_dev_llist_insert+0x30>
    5c58:	00c00034 	movhi	r3,0
    5c5c:	18db3504 	addi	r3,r3,27860
    5c60:	00000206 	br	5c6c <alt_dev_llist_insert+0x38>
    5c64:	103ee83a 	callr	r2
    5c68:	1007883a 	mov	r3,r2
    5c6c:	00800584 	movi	r2,22
    5c70:	18800015 	stw	r2,0(r3)
    5c74:	00bffa84 	movi	r2,-22
    5c78:	00000706 	br	5c98 <alt_dev_llist_insert+0x64>
    5c7c:	21400115 	stw	r5,4(r4)
    5c80:	28800017 	ldw	r2,0(r5)
    5c84:	20800015 	stw	r2,0(r4)
    5c88:	28800017 	ldw	r2,0(r5)
    5c8c:	11000115 	stw	r4,4(r2)
    5c90:	29000015 	stw	r4,0(r5)
    5c94:	0005883a 	mov	r2,zero
    5c98:	dfc00017 	ldw	ra,0(sp)
    5c9c:	dec00104 	addi	sp,sp,4
    5ca0:	f800283a 	ret

00005ca4 <alt_icache_flush_all>:
    5ca4:	f800283a 	ret

00005ca8 <alt_ic_irq_enabled>:
    5ca8:	000530fa 	rdctl	r2,ienable
    5cac:	00c00044 	movi	r3,1
    5cb0:	1946983a 	sll	r3,r3,r5
    5cb4:	10c4703a 	and	r2,r2,r3
    5cb8:	1004c03a 	cmpne	r2,r2,zero
    5cbc:	f800283a 	ret

00005cc0 <alt_ic_irq_enable>:
    5cc0:	000d303a 	rdctl	r6,status
    5cc4:	00bfff84 	movi	r2,-2
    5cc8:	3084703a 	and	r2,r6,r2
    5ccc:	1001703a 	wrctl	status,r2
    5cd0:	00c00034 	movhi	r3,0
    5cd4:	18db3904 	addi	r3,r3,27876
    5cd8:	19000017 	ldw	r4,0(r3)
    5cdc:	00800044 	movi	r2,1
    5ce0:	1144983a 	sll	r2,r2,r5
    5ce4:	1104b03a 	or	r2,r2,r4
    5ce8:	18800015 	stw	r2,0(r3)
    5cec:	18800017 	ldw	r2,0(r3)
    5cf0:	100170fa 	wrctl	ienable,r2
    5cf4:	3001703a 	wrctl	status,r6
    5cf8:	0005883a 	mov	r2,zero
    5cfc:	f800283a 	ret

00005d00 <alt_ic_irq_disable>:
    5d00:	000d303a 	rdctl	r6,status
    5d04:	00bfff84 	movi	r2,-2
    5d08:	3084703a 	and	r2,r6,r2
    5d0c:	1001703a 	wrctl	status,r2
    5d10:	00c00034 	movhi	r3,0
    5d14:	18db3904 	addi	r3,r3,27876
    5d18:	19000017 	ldw	r4,0(r3)
    5d1c:	00bfff84 	movi	r2,-2
    5d20:	1144183a 	rol	r2,r2,r5
    5d24:	1104703a 	and	r2,r2,r4
    5d28:	18800015 	stw	r2,0(r3)
    5d2c:	18800017 	ldw	r2,0(r3)
    5d30:	100170fa 	wrctl	ienable,r2
    5d34:	3001703a 	wrctl	status,r6
    5d38:	0005883a 	mov	r2,zero
    5d3c:	f800283a 	ret

00005d40 <alt_ic_isr_register>:
    5d40:	defffe04 	addi	sp,sp,-8
    5d44:	dfc00115 	stw	ra,4(sp)
    5d48:	d8800217 	ldw	r2,8(sp)
    5d4c:	d8800015 	stw	r2,0(sp)
    5d50:	0005d600 	call	5d60 <alt_iic_isr_register>
    5d54:	dfc00117 	ldw	ra,4(sp)
    5d58:	dec00204 	addi	sp,sp,8
    5d5c:	f800283a 	ret

00005d60 <alt_iic_isr_register>:
    5d60:	defffe04 	addi	sp,sp,-8
    5d64:	dfc00115 	stw	ra,4(sp)
    5d68:	dc000015 	stw	r16,0(sp)
    5d6c:	008007c4 	movi	r2,31
    5d70:	1140020e 	bge	r2,r5,5d7c <alt_iic_isr_register+0x1c>
    5d74:	00bffa84 	movi	r2,-22
    5d78:	00000f06 	br	5db8 <alt_iic_isr_register+0x58>
    5d7c:	0021303a 	rdctl	r16,status
    5d80:	00bfff84 	movi	r2,-2
    5d84:	8084703a 	and	r2,r16,r2
    5d88:	1001703a 	wrctl	status,r2
    5d8c:	280490fa 	slli	r2,r5,3
    5d90:	00c00034 	movhi	r3,0
    5d94:	18db3c04 	addi	r3,r3,27888
    5d98:	10c5883a 	add	r2,r2,r3
    5d9c:	11800015 	stw	r6,0(r2)
    5da0:	11c00115 	stw	r7,4(r2)
    5da4:	30000226 	beq	r6,zero,5db0 <alt_iic_isr_register+0x50>
    5da8:	0005cc00 	call	5cc0 <alt_ic_irq_enable>
    5dac:	00000106 	br	5db4 <alt_iic_isr_register+0x54>
    5db0:	0005d000 	call	5d00 <alt_ic_irq_disable>
    5db4:	8001703a 	wrctl	status,r16
    5db8:	dfc00117 	ldw	ra,4(sp)
    5dbc:	dc000017 	ldw	r16,0(sp)
    5dc0:	dec00204 	addi	sp,sp,8
    5dc4:	f800283a 	ret

00005dc8 <alt_open_fd>:
    5dc8:	defffd04 	addi	sp,sp,-12
    5dcc:	dfc00215 	stw	ra,8(sp)
    5dd0:	dc400115 	stw	r17,4(sp)
    5dd4:	dc000015 	stw	r16,0(sp)
    5dd8:	2023883a 	mov	r17,r4
    5ddc:	2809883a 	mov	r4,r5
    5de0:	300b883a 	mov	r5,r6
    5de4:	380d883a 	mov	r6,r7
    5de8:	0005ed80 	call	5ed8 <open>
    5dec:	1021883a 	mov	r16,r2
    5df0:	10000e16 	blt	r2,zero,5e2c <alt_open_fd+0x64>
    5df4:	1009883a 	mov	r4,r2
    5df8:	01400304 	movi	r5,12
    5dfc:	0004c940 	call	4c94 <__mulsi3>
    5e00:	00c00034 	movhi	r3,0
    5e04:	18da0604 	addi	r3,r3,26648
    5e08:	10c5883a 	add	r2,r2,r3
    5e0c:	10c00017 	ldw	r3,0(r2)
    5e10:	88c00015 	stw	r3,0(r17)
    5e14:	10c00117 	ldw	r3,4(r2)
    5e18:	88c00115 	stw	r3,4(r17)
    5e1c:	10800217 	ldw	r2,8(r2)
    5e20:	88800215 	stw	r2,8(r17)
    5e24:	8009883a 	mov	r4,r16
    5e28:	000605c0 	call	605c <alt_release_fd>
    5e2c:	dfc00217 	ldw	ra,8(sp)
    5e30:	dc400117 	ldw	r17,4(sp)
    5e34:	dc000017 	ldw	r16,0(sp)
    5e38:	dec00304 	addi	sp,sp,12
    5e3c:	f800283a 	ret

00005e40 <alt_io_redirect>:
    5e40:	defffa04 	addi	sp,sp,-24
    5e44:	dfc00515 	stw	ra,20(sp)
    5e48:	dd000415 	stw	r20,16(sp)
    5e4c:	dcc00315 	stw	r19,12(sp)
    5e50:	dc800215 	stw	r18,8(sp)
    5e54:	dc400115 	stw	r17,4(sp)
    5e58:	dc000015 	stw	r16,0(sp)
    5e5c:	2005883a 	mov	r2,r4
    5e60:	2827883a 	mov	r19,r5
    5e64:	3029883a 	mov	r20,r6
    5e68:	04000034 	movhi	r16,0
    5e6c:	841a0904 	addi	r16,r16,26660
    5e70:	04800044 	movi	r18,1
    5e74:	04407fc4 	movi	r17,511
    5e78:	8009883a 	mov	r4,r16
    5e7c:	100b883a 	mov	r5,r2
    5e80:	900d883a 	mov	r6,r18
    5e84:	880f883a 	mov	r7,r17
    5e88:	0005dc80 	call	5dc8 <alt_open_fd>
    5e8c:	843ffd04 	addi	r16,r16,-12
    5e90:	8009883a 	mov	r4,r16
    5e94:	980b883a 	mov	r5,r19
    5e98:	000d883a 	mov	r6,zero
    5e9c:	880f883a 	mov	r7,r17
    5ea0:	0005dc80 	call	5dc8 <alt_open_fd>
    5ea4:	81000604 	addi	r4,r16,24
    5ea8:	a00b883a 	mov	r5,r20
    5eac:	900d883a 	mov	r6,r18
    5eb0:	880f883a 	mov	r7,r17
    5eb4:	0005dc80 	call	5dc8 <alt_open_fd>
    5eb8:	dfc00517 	ldw	ra,20(sp)
    5ebc:	dd000417 	ldw	r20,16(sp)
    5ec0:	dcc00317 	ldw	r19,12(sp)
    5ec4:	dc800217 	ldw	r18,8(sp)
    5ec8:	dc400117 	ldw	r17,4(sp)
    5ecc:	dc000017 	ldw	r16,0(sp)
    5ed0:	dec00604 	addi	sp,sp,24
    5ed4:	f800283a 	ret

00005ed8 <open>:
    5ed8:	defff904 	addi	sp,sp,-28
    5edc:	dfc00615 	stw	ra,24(sp)
    5ee0:	dd400515 	stw	r21,20(sp)
    5ee4:	dd000415 	stw	r20,16(sp)
    5ee8:	dcc00315 	stw	r19,12(sp)
    5eec:	dc800215 	stw	r18,8(sp)
    5ef0:	dc400115 	stw	r17,4(sp)
    5ef4:	dc000015 	stw	r16,0(sp)
    5ef8:	2029883a 	mov	r20,r4
    5efc:	2827883a 	mov	r19,r5
    5f00:	302b883a 	mov	r21,r6
    5f04:	01400034 	movhi	r5,0
    5f08:	295a7004 	addi	r5,r5,27072
    5f0c:	00061ac0 	call	61ac <alt_find_dev>
    5f10:	1021883a 	mov	r16,r2
    5f14:	10000226 	beq	r2,zero,5f20 <open+0x48>
    5f18:	0025883a 	mov	r18,zero
    5f1c:	00000a06 	br	5f48 <open+0x70>
    5f20:	a009883a 	mov	r4,r20
    5f24:	000621c0 	call	621c <alt_find_file>
    5f28:	1021883a 	mov	r16,r2
    5f2c:	1000051e 	bne	r2,zero,5f44 <open+0x6c>
    5f30:	047fffc4 	movi	r17,-1
    5f34:	043ffb44 	movi	r16,-19
    5f38:	00002d06 	br	5ff0 <open+0x118>
    5f3c:	043ffcc4 	movi	r16,-13
    5f40:	00002b06 	br	5ff0 <open+0x118>
    5f44:	04800044 	movi	r18,1
    5f48:	8009883a 	mov	r4,r16
    5f4c:	00062d80 	call	62d8 <alt_get_fd>
    5f50:	1023883a 	mov	r17,r2
    5f54:	10003516 	blt	r2,zero,602c <open+0x154>
    5f58:	1009883a 	mov	r4,r2
    5f5c:	01400304 	movi	r5,12
    5f60:	0004c940 	call	4c94 <__mulsi3>
    5f64:	02000034 	movhi	r8,0
    5f68:	421a0604 	addi	r8,r8,26648
    5f6c:	1209883a 	add	r4,r2,r8
    5f70:	00900034 	movhi	r2,16384
    5f74:	10bfffc4 	addi	r2,r2,-1
    5f78:	9886703a 	and	r3,r19,r2
    5f7c:	20c00215 	stw	r3,8(r4)
    5f80:	9004c03a 	cmpne	r2,r18,zero
    5f84:	1000121e 	bne	r2,zero,5fd0 <open+0xf8>
    5f88:	18900034 	orhi	r2,r3,16384
    5f8c:	20800215 	stw	r2,8(r4)
    5f90:	00800034 	movhi	r2,0
    5f94:	109a7204 	addi	r2,r2,27080
    5f98:	11c00017 	ldw	r7,0(r2)
    5f9c:	21800017 	ldw	r6,0(r4)
    5fa0:	000b883a 	mov	r5,zero
    5fa4:	4007883a 	mov	r3,r8
    5fa8:	02400044 	movi	r9,1
    5fac:	02000304 	movi	r8,12
    5fb0:	18800017 	ldw	r2,0(r3)
    5fb4:	1180031e 	bne	r2,r6,5fc4 <open+0xec>
    5fb8:	18800217 	ldw	r2,8(r3)
    5fbc:	1000010e 	bge	r2,zero,5fc4 <open+0xec>
    5fc0:	193fde1e 	bne	r3,r4,5f3c <open+0x64>
    5fc4:	2a4b883a 	add	r5,r5,r9
    5fc8:	1a07883a 	add	r3,r3,r8
    5fcc:	397ff82e 	bgeu	r7,r5,5fb0 <open+0xd8>
    5fd0:	80800317 	ldw	r2,12(r16)
    5fd4:	10001726 	beq	r2,zero,6034 <open+0x15c>
    5fd8:	a00b883a 	mov	r5,r20
    5fdc:	980d883a 	mov	r6,r19
    5fe0:	a80f883a 	mov	r7,r21
    5fe4:	103ee83a 	callr	r2
    5fe8:	1021883a 	mov	r16,r2
    5fec:	1000110e 	bge	r2,zero,6034 <open+0x15c>
    5ff0:	8809883a 	mov	r4,r17
    5ff4:	000605c0 	call	605c <alt_release_fd>
    5ff8:	00800034 	movhi	r2,0
    5ffc:	109a7304 	addi	r2,r2,27084
    6000:	10800017 	ldw	r2,0(r2)
    6004:	1000031e 	bne	r2,zero,6014 <open+0x13c>
    6008:	00c00034 	movhi	r3,0
    600c:	18db3504 	addi	r3,r3,27860
    6010:	00000206 	br	601c <open+0x144>
    6014:	103ee83a 	callr	r2
    6018:	1007883a 	mov	r3,r2
    601c:	0405c83a 	sub	r2,zero,r16
    6020:	18800015 	stw	r2,0(r3)
    6024:	047fffc4 	movi	r17,-1
    6028:	00000206 	br	6034 <open+0x15c>
    602c:	1021883a 	mov	r16,r2
    6030:	003fef06 	br	5ff0 <open+0x118>
    6034:	8805883a 	mov	r2,r17
    6038:	dfc00617 	ldw	ra,24(sp)
    603c:	dd400517 	ldw	r21,20(sp)
    6040:	dd000417 	ldw	r20,16(sp)
    6044:	dcc00317 	ldw	r19,12(sp)
    6048:	dc800217 	ldw	r18,8(sp)
    604c:	dc400117 	ldw	r17,4(sp)
    6050:	dc000017 	ldw	r16,0(sp)
    6054:	dec00704 	addi	sp,sp,28
    6058:	f800283a 	ret

0000605c <alt_release_fd>:
    605c:	defffc04 	addi	sp,sp,-16
    6060:	dfc00315 	stw	ra,12(sp)
    6064:	dc800215 	stw	r18,8(sp)
    6068:	dc400115 	stw	r17,4(sp)
    606c:	dc000015 	stw	r16,0(sp)
    6070:	2025883a 	mov	r18,r4
    6074:	00800084 	movi	r2,2
    6078:	11000c0e 	bge	r2,r4,60ac <alt_release_fd+0x50>
    607c:	04400034 	movhi	r17,0
    6080:	8c5a0604 	addi	r17,r17,26648
    6084:	04000304 	movi	r16,12
    6088:	800b883a 	mov	r5,r16
    608c:	0004c940 	call	4c94 <__mulsi3>
    6090:	1445883a 	add	r2,r2,r17
    6094:	10000215 	stw	zero,8(r2)
    6098:	9009883a 	mov	r4,r18
    609c:	800b883a 	mov	r5,r16
    60a0:	0004c940 	call	4c94 <__mulsi3>
    60a4:	1445883a 	add	r2,r2,r17
    60a8:	10000015 	stw	zero,0(r2)
    60ac:	dfc00317 	ldw	ra,12(sp)
    60b0:	dc800217 	ldw	r18,8(sp)
    60b4:	dc400117 	ldw	r17,4(sp)
    60b8:	dc000017 	ldw	r16,0(sp)
    60bc:	dec00404 	addi	sp,sp,16
    60c0:	f800283a 	ret

000060c4 <alt_alarm_stop>:
    60c4:	000b303a 	rdctl	r5,status
    60c8:	00bfff84 	movi	r2,-2
    60cc:	2884703a 	and	r2,r5,r2
    60d0:	1001703a 	wrctl	status,r2
    60d4:	20c00017 	ldw	r3,0(r4)
    60d8:	20800117 	ldw	r2,4(r4)
    60dc:	18800115 	stw	r2,4(r3)
    60e0:	20800117 	ldw	r2,4(r4)
    60e4:	10c00015 	stw	r3,0(r2)
    60e8:	21000115 	stw	r4,4(r4)
    60ec:	21000015 	stw	r4,0(r4)
    60f0:	2801703a 	wrctl	status,r5
    60f4:	f800283a 	ret

000060f8 <alt_tick>:
    60f8:	defffd04 	addi	sp,sp,-12
    60fc:	dfc00215 	stw	ra,8(sp)
    6100:	dc400115 	stw	r17,4(sp)
    6104:	dc000015 	stw	r16,0(sp)
    6108:	d4200f17 	ldw	r16,-32708(gp)
    610c:	d0a0d517 	ldw	r2,-31916(gp)
    6110:	10800044 	addi	r2,r2,1
    6114:	d0a0d515 	stw	r2,-31916(gp)
    6118:	00001b06 	br	6188 <alt_tick+0x90>
    611c:	84400017 	ldw	r17,0(r16)
    6120:	80800403 	ldbu	r2,16(r16)
    6124:	10000326 	beq	r2,zero,6134 <alt_tick+0x3c>
    6128:	d0a0d517 	ldw	r2,-31916(gp)
    612c:	1000011e 	bne	r2,zero,6134 <alt_tick+0x3c>
    6130:	80000405 	stb	zero,16(r16)
    6134:	d0e0d517 	ldw	r3,-31916(gp)
    6138:	80800217 	ldw	r2,8(r16)
    613c:	18801136 	bltu	r3,r2,6184 <alt_tick+0x8c>
    6140:	80800403 	ldbu	r2,16(r16)
    6144:	10000f1e 	bne	r2,zero,6184 <alt_tick+0x8c>
    6148:	80800317 	ldw	r2,12(r16)
    614c:	81000517 	ldw	r4,20(r16)
    6150:	103ee83a 	callr	r2
    6154:	1007883a 	mov	r3,r2
    6158:	1000031e 	bne	r2,zero,6168 <alt_tick+0x70>
    615c:	8009883a 	mov	r4,r16
    6160:	00060c40 	call	60c4 <alt_alarm_stop>
    6164:	00000706 	br	6184 <alt_tick+0x8c>
    6168:	80800217 	ldw	r2,8(r16)
    616c:	1885883a 	add	r2,r3,r2
    6170:	80800215 	stw	r2,8(r16)
    6174:	d0e0d517 	ldw	r3,-31916(gp)
    6178:	10c0022e 	bgeu	r2,r3,6184 <alt_tick+0x8c>
    617c:	00800044 	movi	r2,1
    6180:	80800405 	stb	r2,16(r16)
    6184:	8821883a 	mov	r16,r17
    6188:	d0a00f04 	addi	r2,gp,-32708
    618c:	80bfe31e 	bne	r16,r2,611c <alt_tick+0x24>
    6190:	dfc00217 	ldw	ra,8(sp)
    6194:	dc400117 	ldw	r17,4(sp)
    6198:	dc000017 	ldw	r16,0(sp)
    619c:	dec00304 	addi	sp,sp,12
    61a0:	f800283a 	ret

000061a4 <altera_nios2_qsys_irq_init>:
    61a4:	000170fa 	wrctl	ienable,zero
    61a8:	f800283a 	ret

000061ac <alt_find_dev>:
    61ac:	defffb04 	addi	sp,sp,-20
    61b0:	dfc00415 	stw	ra,16(sp)
    61b4:	dcc00315 	stw	r19,12(sp)
    61b8:	dc800215 	stw	r18,8(sp)
    61bc:	dc400115 	stw	r17,4(sp)
    61c0:	dc000015 	stw	r16,0(sp)
    61c4:	2027883a 	mov	r19,r4
    61c8:	2821883a 	mov	r16,r5
    61cc:	2c400017 	ldw	r17,0(r5)
    61d0:	00055600 	call	5560 <strlen>
    61d4:	14800044 	addi	r18,r2,1
    61d8:	8c000726 	beq	r17,r16,61f8 <alt_find_dev+0x4c>
    61dc:	89000217 	ldw	r4,8(r17)
    61e0:	980b883a 	mov	r5,r19
    61e4:	900d883a 	mov	r6,r18
    61e8:	00063980 	call	6398 <memcmp>
    61ec:	10000326 	beq	r2,zero,61fc <alt_find_dev+0x50>
    61f0:	8c400017 	ldw	r17,0(r17)
    61f4:	847ff91e 	bne	r16,r17,61dc <alt_find_dev+0x30>
    61f8:	0023883a 	mov	r17,zero
    61fc:	8805883a 	mov	r2,r17
    6200:	dfc00417 	ldw	ra,16(sp)
    6204:	dcc00317 	ldw	r19,12(sp)
    6208:	dc800217 	ldw	r18,8(sp)
    620c:	dc400117 	ldw	r17,4(sp)
    6210:	dc000017 	ldw	r16,0(sp)
    6214:	dec00504 	addi	sp,sp,20
    6218:	f800283a 	ret

0000621c <alt_find_file>:
    621c:	defff904 	addi	sp,sp,-28
    6220:	dfc00615 	stw	ra,24(sp)
    6224:	dd400515 	stw	r21,20(sp)
    6228:	dd000415 	stw	r20,16(sp)
    622c:	dcc00315 	stw	r19,12(sp)
    6230:	dc800215 	stw	r18,8(sp)
    6234:	dc400115 	stw	r17,4(sp)
    6238:	dc000015 	stw	r16,0(sp)
    623c:	2025883a 	mov	r18,r4
    6240:	00800034 	movhi	r2,0
    6244:	109a6e04 	addi	r2,r2,27064
    6248:	14400017 	ldw	r17,0(r2)
    624c:	102b883a 	mov	r21,r2
    6250:	88801626 	beq	r17,r2,62ac <alt_find_file+0x90>
    6254:	053fffc4 	movi	r20,-1
    6258:	04c00bc4 	movi	r19,47
    625c:	8c000217 	ldw	r16,8(r17)
    6260:	8009883a 	mov	r4,r16
    6264:	00055600 	call	5560 <strlen>
    6268:	1007883a 	mov	r3,r2
    626c:	8085883a 	add	r2,r16,r2
    6270:	1505883a 	add	r2,r2,r20
    6274:	10800007 	ldb	r2,0(r2)
    6278:	14c0011e 	bne	r2,r19,6280 <alt_find_file+0x64>
    627c:	1d07883a 	add	r3,r3,r20
    6280:	1c85883a 	add	r2,r3,r18
    6284:	10800007 	ldb	r2,0(r2)
    6288:	14c00126 	beq	r2,r19,6290 <alt_find_file+0x74>
    628c:	1000051e 	bne	r2,zero,62a4 <alt_find_file+0x88>
    6290:	8009883a 	mov	r4,r16
    6294:	900b883a 	mov	r5,r18
    6298:	180d883a 	mov	r6,r3
    629c:	00063980 	call	6398 <memcmp>
    62a0:	10000326 	beq	r2,zero,62b0 <alt_find_file+0x94>
    62a4:	8c400017 	ldw	r17,0(r17)
    62a8:	8d7fec1e 	bne	r17,r21,625c <alt_find_file+0x40>
    62ac:	0023883a 	mov	r17,zero
    62b0:	8805883a 	mov	r2,r17
    62b4:	dfc00617 	ldw	ra,24(sp)
    62b8:	dd400517 	ldw	r21,20(sp)
    62bc:	dd000417 	ldw	r20,16(sp)
    62c0:	dcc00317 	ldw	r19,12(sp)
    62c4:	dc800217 	ldw	r18,8(sp)
    62c8:	dc400117 	ldw	r17,4(sp)
    62cc:	dc000017 	ldw	r16,0(sp)
    62d0:	dec00704 	addi	sp,sp,28
    62d4:	f800283a 	ret

000062d8 <alt_get_fd>:
    62d8:	defffb04 	addi	sp,sp,-20
    62dc:	dfc00415 	stw	ra,16(sp)
    62e0:	dcc00315 	stw	r19,12(sp)
    62e4:	dc800215 	stw	r18,8(sp)
    62e8:	dc400115 	stw	r17,4(sp)
    62ec:	dc000015 	stw	r16,0(sp)
    62f0:	2025883a 	mov	r18,r4
    62f4:	0021883a 	mov	r16,zero
    62f8:	00c00034 	movhi	r3,0
    62fc:	18da0604 	addi	r3,r3,26648
    6300:	04c00034 	movhi	r19,0
    6304:	9cda7204 	addi	r19,r19,27080
    6308:	18800017 	ldw	r2,0(r3)
    630c:	10000e1e 	bne	r2,zero,6348 <alt_get_fd+0x70>
    6310:	8009883a 	mov	r4,r16
    6314:	01400304 	movi	r5,12
    6318:	0004c940 	call	4c94 <__mulsi3>
    631c:	00c00034 	movhi	r3,0
    6320:	18da0604 	addi	r3,r3,26648
    6324:	10c5883a 	add	r2,r2,r3
    6328:	14800015 	stw	r18,0(r2)
    632c:	98800017 	ldw	r2,0(r19)
    6330:	14000216 	blt	r2,r16,633c <alt_get_fd+0x64>
    6334:	8005883a 	mov	r2,r16
    6338:	00000806 	br	635c <alt_get_fd+0x84>
    633c:	9c000015 	stw	r16,0(r19)
    6340:	8005883a 	mov	r2,r16
    6344:	00000506 	br	635c <alt_get_fd+0x84>
    6348:	84000044 	addi	r16,r16,1
    634c:	18c00304 	addi	r3,r3,12
    6350:	00800804 	movi	r2,32
    6354:	80bfec1e 	bne	r16,r2,6308 <alt_get_fd+0x30>
    6358:	00bffa04 	movi	r2,-24
    635c:	dfc00417 	ldw	ra,16(sp)
    6360:	dcc00317 	ldw	r19,12(sp)
    6364:	dc800217 	ldw	r18,8(sp)
    6368:	dc400117 	ldw	r17,4(sp)
    636c:	dc000017 	ldw	r16,0(sp)
    6370:	dec00504 	addi	sp,sp,20
    6374:	f800283a 	ret

00006378 <exit>:
    6378:	defffe04 	addi	sp,sp,-8
    637c:	dc400015 	stw	r17,0(sp)
    6380:	000b883a 	mov	r5,zero
    6384:	2023883a 	mov	r17,r4
    6388:	dfc00115 	stw	ra,4(sp)
    638c:	00063d80 	call	63d8 <__call_exitprocs>
    6390:	8809883a 	mov	r4,r17
    6394:	00065940 	call	6594 <_exit>

00006398 <memcmp>:
    6398:	31ffffc4 	addi	r7,r6,-1
    639c:	3000061e 	bne	r6,zero,63b8 <memcmp+0x20>
    63a0:	00000a06 	br	63cc <memcmp+0x34>
    63a4:	39ffffc4 	addi	r7,r7,-1
    63a8:	00bfffc4 	movi	r2,-1
    63ac:	21000044 	addi	r4,r4,1
    63b0:	29400044 	addi	r5,r5,1
    63b4:	38800526 	beq	r7,r2,63cc <memcmp+0x34>
    63b8:	20c00003 	ldbu	r3,0(r4)
    63bc:	28800003 	ldbu	r2,0(r5)
    63c0:	18bff826 	beq	r3,r2,63a4 <memcmp+0xc>
    63c4:	1885c83a 	sub	r2,r3,r2
    63c8:	f800283a 	ret
    63cc:	0005883a 	mov	r2,zero
    63d0:	f800283a 	ret

000063d4 <register_fini>:
    63d4:	f800283a 	ret

000063d8 <__call_exitprocs>:
    63d8:	defff304 	addi	sp,sp,-52
    63dc:	00800034 	movhi	r2,0
    63e0:	109a6d04 	addi	r2,r2,27060
    63e4:	df000b15 	stw	fp,44(sp)
    63e8:	17000017 	ldw	fp,0(r2)
    63ec:	00800034 	movhi	r2,0
    63f0:	10800004 	addi	r2,r2,0
    63f4:	1005003a 	cmpeq	r2,r2,zero
    63f8:	d8800215 	stw	r2,8(sp)
    63fc:	e0800c04 	addi	r2,fp,48
    6400:	dd800915 	stw	r22,36(sp)
    6404:	dd400815 	stw	r21,32(sp)
    6408:	dfc00c15 	stw	ra,48(sp)
    640c:	ddc00a15 	stw	r23,40(sp)
    6410:	dd000715 	stw	r20,28(sp)
    6414:	dcc00615 	stw	r19,24(sp)
    6418:	dc800515 	stw	r18,20(sp)
    641c:	dc400415 	stw	r17,16(sp)
    6420:	dc000315 	stw	r16,12(sp)
    6424:	282d883a 	mov	r22,r5
    6428:	d9000115 	stw	r4,4(sp)
    642c:	d8800015 	stw	r2,0(sp)
    6430:	282b003a 	cmpeq	r21,r5,zero
    6434:	e4400c17 	ldw	r17,48(fp)
    6438:	88001226 	beq	r17,zero,6484 <__call_exitprocs+0xac>
    643c:	ddc00017 	ldw	r23,0(sp)
    6440:	88800117 	ldw	r2,4(r17)
    6444:	8c802217 	ldw	r18,136(r17)
    6448:	143fffc4 	addi	r16,r2,-1
    644c:	80000b16 	blt	r16,zero,647c <__call_exitprocs+0xa4>
    6450:	9027003a 	cmpeq	r19,r18,zero
    6454:	a800171e 	bne	r21,zero,64b4 <__call_exitprocs+0xdc>
    6458:	9800051e 	bne	r19,zero,6470 <__call_exitprocs+0x98>
    645c:	8409883a 	add	r4,r16,r16
    6460:	2105883a 	add	r2,r4,r4
    6464:	1485883a 	add	r2,r2,r18
    6468:	10c02017 	ldw	r3,128(r2)
    646c:	b0c01226 	beq	r22,r3,64b8 <__call_exitprocs+0xe0>
    6470:	843fffc4 	addi	r16,r16,-1
    6474:	00bfffc4 	movi	r2,-1
    6478:	80bff61e 	bne	r16,r2,6454 <__call_exitprocs+0x7c>
    647c:	d8800217 	ldw	r2,8(sp)
    6480:	10003226 	beq	r2,zero,654c <__call_exitprocs+0x174>
    6484:	dfc00c17 	ldw	ra,48(sp)
    6488:	df000b17 	ldw	fp,44(sp)
    648c:	ddc00a17 	ldw	r23,40(sp)
    6490:	dd800917 	ldw	r22,36(sp)
    6494:	dd400817 	ldw	r21,32(sp)
    6498:	dd000717 	ldw	r20,28(sp)
    649c:	dcc00617 	ldw	r19,24(sp)
    64a0:	dc800517 	ldw	r18,20(sp)
    64a4:	dc400417 	ldw	r17,16(sp)
    64a8:	dc000317 	ldw	r16,12(sp)
    64ac:	dec00d04 	addi	sp,sp,52
    64b0:	f800283a 	ret
    64b4:	8409883a 	add	r4,r16,r16
    64b8:	88c00117 	ldw	r3,4(r17)
    64bc:	2105883a 	add	r2,r4,r4
    64c0:	1445883a 	add	r2,r2,r17
    64c4:	18ffffc4 	addi	r3,r3,-1
    64c8:	11800217 	ldw	r6,8(r2)
    64cc:	1c001826 	beq	r3,r16,6530 <__call_exitprocs+0x158>
    64d0:	10000215 	stw	zero,8(r2)
    64d4:	303fe626 	beq	r6,zero,6470 <__call_exitprocs+0x98>
    64d8:	8d000117 	ldw	r20,4(r17)
    64dc:	9800121e 	bne	r19,zero,6528 <__call_exitprocs+0x150>
    64e0:	00c00044 	movi	r3,1
    64e4:	1c06983a 	sll	r3,r3,r16
    64e8:	90804017 	ldw	r2,256(r18)
    64ec:	1884703a 	and	r2,r3,r2
    64f0:	10000d26 	beq	r2,zero,6528 <__call_exitprocs+0x150>
    64f4:	90804117 	ldw	r2,260(r18)
    64f8:	1884703a 	and	r2,r3,r2
    64fc:	10000e1e 	bne	r2,zero,6538 <__call_exitprocs+0x160>
    6500:	2105883a 	add	r2,r4,r4
    6504:	1485883a 	add	r2,r2,r18
    6508:	11400017 	ldw	r5,0(r2)
    650c:	d9000117 	ldw	r4,4(sp)
    6510:	303ee83a 	callr	r6
    6514:	88800117 	ldw	r2,4(r17)
    6518:	a0bfc61e 	bne	r20,r2,6434 <__call_exitprocs+0x5c>
    651c:	b8800017 	ldw	r2,0(r23)
    6520:	147fd326 	beq	r2,r17,6470 <__call_exitprocs+0x98>
    6524:	003fc306 	br	6434 <__call_exitprocs+0x5c>
    6528:	303ee83a 	callr	r6
    652c:	003ff906 	br	6514 <__call_exitprocs+0x13c>
    6530:	8c000115 	stw	r16,4(r17)
    6534:	003fe706 	br	64d4 <__call_exitprocs+0xfc>
    6538:	2105883a 	add	r2,r4,r4
    653c:	1485883a 	add	r2,r2,r18
    6540:	11000017 	ldw	r4,0(r2)
    6544:	303ee83a 	callr	r6
    6548:	003ff206 	br	6514 <__call_exitprocs+0x13c>
    654c:	88800117 	ldw	r2,4(r17)
    6550:	10000b1e 	bne	r2,zero,6580 <__call_exitprocs+0x1a8>
    6554:	89000017 	ldw	r4,0(r17)
    6558:	20000a26 	beq	r4,zero,6584 <__call_exitprocs+0x1ac>
    655c:	b9000015 	stw	r4,0(r23)
    6560:	90000226 	beq	r18,zero,656c <__call_exitprocs+0x194>
    6564:	9009883a 	mov	r4,r18
    6568:	00000000 	call	0 <__reset-0x4000>
    656c:	8809883a 	mov	r4,r17
    6570:	00000000 	call	0 <__reset-0x4000>
    6574:	bc400017 	ldw	r17,0(r23)
    6578:	883fb11e 	bne	r17,zero,6440 <__call_exitprocs+0x68>
    657c:	003fc106 	br	6484 <__call_exitprocs+0xac>
    6580:	89000017 	ldw	r4,0(r17)
    6584:	882f883a 	mov	r23,r17
    6588:	2023883a 	mov	r17,r4
    658c:	883fac1e 	bne	r17,zero,6440 <__call_exitprocs+0x68>
    6590:	003fbc06 	br	6484 <__call_exitprocs+0xac>

00006594 <_exit>:
    6594:	20000226 	beq	r4,zero,65a0 <_exit+0xc>
    6598:	002af070 	cmpltui	zero,zero,43969
    659c:	00000106 	br	65a4 <_exit+0x10>
    65a0:	002af0b0 	cmpltui	zero,zero,43970
    65a4:	003fff06 	br	65a4 <_exit+0x10>
    65a8:	000063d4 	movui	zero,399
